
bombpreassign:     file format elf32-i386


Disassembly of section .init:

08048634 <_init>:
 8048634:	53                   	push   %ebx
 8048635:	83 ec 08             	sub    $0x8,%esp
 8048638:	e8 f3 01 00 00       	call   8048830 <__x86.get_pc_thunk.bx>
 804863d:	81 c3 c3 39 00 00    	add    $0x39c3,%ebx
 8048643:	8b 83 fc ff ff ff    	mov    -0x4(%ebx),%eax
 8048649:	85 c0                	test   %eax,%eax
 804864b:	74 05                	je     8048652 <_init+0x1e>
 804864d:	e8 be 00 00 00       	call   8048710 <__gmon_start__@plt>
 8048652:	83 c4 08             	add    $0x8,%esp
 8048655:	5b                   	pop    %ebx
 8048656:	c3                   	ret    

Disassembly of section .plt:

08048660 <read@plt-0x10>:
 8048660:	ff 35 04 c0 04 08    	pushl  0x804c004
 8048666:	ff 25 08 c0 04 08    	jmp    *0x804c008
 804866c:	00 00                	add    %al,(%eax)
	...

08048670 <read@plt>:
 8048670:	ff 25 0c c0 04 08    	jmp    *0x804c00c
 8048676:	68 00 00 00 00       	push   $0x0
 804867b:	e9 e0 ff ff ff       	jmp    8048660 <_init+0x2c>

08048680 <printf@plt>:
 8048680:	ff 25 10 c0 04 08    	jmp    *0x804c010
 8048686:	68 08 00 00 00       	push   $0x8
 804868b:	e9 d0 ff ff ff       	jmp    8048660 <_init+0x2c>

08048690 <memcpy@plt>:
 8048690:	ff 25 14 c0 04 08    	jmp    *0x804c014
 8048696:	68 10 00 00 00       	push   $0x10
 804869b:	e9 c0 ff ff ff       	jmp    8048660 <_init+0x2c>

080486a0 <fgets@plt>:
 80486a0:	ff 25 18 c0 04 08    	jmp    *0x804c018
 80486a6:	68 18 00 00 00       	push   $0x18
 80486ab:	e9 b0 ff ff ff       	jmp    8048660 <_init+0x2c>

080486b0 <signal@plt>:
 80486b0:	ff 25 1c c0 04 08    	jmp    *0x804c01c
 80486b6:	68 20 00 00 00       	push   $0x20
 80486bb:	e9 a0 ff ff ff       	jmp    8048660 <_init+0x2c>

080486c0 <alarm@plt>:
 80486c0:	ff 25 20 c0 04 08    	jmp    *0x804c020
 80486c6:	68 28 00 00 00       	push   $0x28
 80486cb:	e9 90 ff ff ff       	jmp    8048660 <_init+0x2c>

080486d0 <bcopy@plt>:
 80486d0:	ff 25 24 c0 04 08    	jmp    *0x804c024
 80486d6:	68 30 00 00 00       	push   $0x30
 80486db:	e9 80 ff ff ff       	jmp    8048660 <_init+0x2c>

080486e0 <strcpy@plt>:
 80486e0:	ff 25 28 c0 04 08    	jmp    *0x804c028
 80486e6:	68 38 00 00 00       	push   $0x38
 80486eb:	e9 70 ff ff ff       	jmp    8048660 <_init+0x2c>

080486f0 <getenv@plt>:
 80486f0:	ff 25 2c c0 04 08    	jmp    *0x804c02c
 80486f6:	68 40 00 00 00       	push   $0x40
 80486fb:	e9 60 ff ff ff       	jmp    8048660 <_init+0x2c>

08048700 <puts@plt>:
 8048700:	ff 25 30 c0 04 08    	jmp    *0x804c030
 8048706:	68 48 00 00 00       	push   $0x48
 804870b:	e9 50 ff ff ff       	jmp    8048660 <_init+0x2c>

08048710 <__gmon_start__@plt>:
 8048710:	ff 25 34 c0 04 08    	jmp    *0x804c034
 8048716:	68 50 00 00 00       	push   $0x50
 804871b:	e9 40 ff ff ff       	jmp    8048660 <_init+0x2c>

08048720 <exit@plt>:
 8048720:	ff 25 38 c0 04 08    	jmp    *0x804c038
 8048726:	68 58 00 00 00       	push   $0x58
 804872b:	e9 30 ff ff ff       	jmp    8048660 <_init+0x2c>

08048730 <__libc_start_main@plt>:
 8048730:	ff 25 3c c0 04 08    	jmp    *0x804c03c
 8048736:	68 60 00 00 00       	push   $0x60
 804873b:	e9 20 ff ff ff       	jmp    8048660 <_init+0x2c>

08048740 <fprintf@plt>:
 8048740:	ff 25 40 c0 04 08    	jmp    *0x804c040
 8048746:	68 68 00 00 00       	push   $0x68
 804874b:	e9 10 ff ff ff       	jmp    8048660 <_init+0x2c>

08048750 <write@plt>:
 8048750:	ff 25 44 c0 04 08    	jmp    *0x804c044
 8048756:	68 70 00 00 00       	push   $0x70
 804875b:	e9 00 ff ff ff       	jmp    8048660 <_init+0x2c>

08048760 <__isoc99_sscanf@plt>:
 8048760:	ff 25 48 c0 04 08    	jmp    *0x804c048
 8048766:	68 78 00 00 00       	push   $0x78
 804876b:	e9 f0 fe ff ff       	jmp    8048660 <_init+0x2c>

08048770 <fopen@plt>:
 8048770:	ff 25 4c c0 04 08    	jmp    *0x804c04c
 8048776:	68 80 00 00 00       	push   $0x80
 804877b:	e9 e0 fe ff ff       	jmp    8048660 <_init+0x2c>

08048780 <__errno_location@plt>:
 8048780:	ff 25 50 c0 04 08    	jmp    *0x804c050
 8048786:	68 88 00 00 00       	push   $0x88
 804878b:	e9 d0 fe ff ff       	jmp    8048660 <_init+0x2c>

08048790 <sprintf@plt>:
 8048790:	ff 25 54 c0 04 08    	jmp    *0x804c054
 8048796:	68 90 00 00 00       	push   $0x90
 804879b:	e9 c0 fe ff ff       	jmp    8048660 <_init+0x2c>

080487a0 <socket@plt>:
 80487a0:	ff 25 58 c0 04 08    	jmp    *0x804c058
 80487a6:	68 98 00 00 00       	push   $0x98
 80487ab:	e9 b0 fe ff ff       	jmp    8048660 <_init+0x2c>

080487b0 <gethostbyname@plt>:
 80487b0:	ff 25 5c c0 04 08    	jmp    *0x804c05c
 80487b6:	68 a0 00 00 00       	push   $0xa0
 80487bb:	e9 a0 fe ff ff       	jmp    8048660 <_init+0x2c>

080487c0 <strtol@plt>:
 80487c0:	ff 25 60 c0 04 08    	jmp    *0x804c060
 80487c6:	68 a8 00 00 00       	push   $0xa8
 80487cb:	e9 90 fe ff ff       	jmp    8048660 <_init+0x2c>

080487d0 <connect@plt>:
 80487d0:	ff 25 64 c0 04 08    	jmp    *0x804c064
 80487d6:	68 b0 00 00 00       	push   $0xb0
 80487db:	e9 80 fe ff ff       	jmp    8048660 <_init+0x2c>

080487e0 <close@plt>:
 80487e0:	ff 25 68 c0 04 08    	jmp    *0x804c068
 80487e6:	68 b8 00 00 00       	push   $0xb8
 80487eb:	e9 70 fe ff ff       	jmp    8048660 <_init+0x2c>

080487f0 <__ctype_b_loc@plt>:
 80487f0:	ff 25 6c c0 04 08    	jmp    *0x804c06c
 80487f6:	68 c0 00 00 00       	push   $0xc0
 80487fb:	e9 60 fe ff ff       	jmp    8048660 <_init+0x2c>

Disassembly of section .text:

08048800 <_start>:
 8048800:	31 ed                	xor    %ebp,%ebp
 8048802:	5e                   	pop    %esi
 8048803:	89 e1                	mov    %esp,%ecx
 8048805:	83 e4 f0             	and    $0xfffffff0,%esp
 8048808:	50                   	push   %eax
 8048809:	54                   	push   %esp
 804880a:	52                   	push   %edx
 804880b:	68 40 9d 04 08       	push   $0x8049d40
 8048810:	68 d0 9c 04 08       	push   $0x8049cd0
 8048815:	51                   	push   %ecx
 8048816:	56                   	push   %esi
 8048817:	68 00 89 04 08       	push   $0x8048900
 804881c:	e8 0f ff ff ff       	call   8048730 <__libc_start_main@plt>
 8048821:	f4                   	hlt    
 8048822:	66 90                	xchg   %ax,%ax
 8048824:	66 90                	xchg   %ax,%ax
 8048826:	66 90                	xchg   %ax,%ax
 8048828:	66 90                	xchg   %ax,%ax
 804882a:	66 90                	xchg   %ax,%ax
 804882c:	66 90                	xchg   %ax,%ax
 804882e:	66 90                	xchg   %ax,%ax

08048830 <__x86.get_pc_thunk.bx>:
 8048830:	8b 1c 24             	mov    (%esp),%ebx
 8048833:	c3                   	ret    
 8048834:	66 90                	xchg   %ax,%ax
 8048836:	66 90                	xchg   %ax,%ax
 8048838:	66 90                	xchg   %ax,%ax
 804883a:	66 90                	xchg   %ax,%ax
 804883c:	66 90                	xchg   %ax,%ax
 804883e:	66 90                	xchg   %ax,%ax

08048840 <deregister_tm_clones>:
 8048840:	b8 83 c3 04 08       	mov    $0x804c383,%eax
 8048845:	2d 80 c3 04 08       	sub    $0x804c380,%eax
 804884a:	83 f8 06             	cmp    $0x6,%eax
 804884d:	77 01                	ja     8048850 <deregister_tm_clones+0x10>
 804884f:	c3                   	ret    
 8048850:	b8 00 00 00 00       	mov    $0x0,%eax
 8048855:	85 c0                	test   %eax,%eax
 8048857:	74 f6                	je     804884f <deregister_tm_clones+0xf>
 8048859:	55                   	push   %ebp
 804885a:	89 e5                	mov    %esp,%ebp
 804885c:	83 ec 18             	sub    $0x18,%esp
 804885f:	c7 04 24 80 c3 04 08 	movl   $0x804c380,(%esp)
 8048866:	ff d0                	call   *%eax
 8048868:	c9                   	leave  
 8048869:	c3                   	ret    
 804886a:	8d b6 00 00 00 00    	lea    0x0(%esi),%esi

08048870 <register_tm_clones>:
 8048870:	b8 80 c3 04 08       	mov    $0x804c380,%eax
 8048875:	2d 80 c3 04 08       	sub    $0x804c380,%eax
 804887a:	c1 f8 02             	sar    $0x2,%eax
 804887d:	89 c2                	mov    %eax,%edx
 804887f:	c1 ea 1f             	shr    $0x1f,%edx
 8048882:	01 d0                	add    %edx,%eax
 8048884:	d1 f8                	sar    %eax
 8048886:	75 01                	jne    8048889 <register_tm_clones+0x19>
 8048888:	c3                   	ret    
 8048889:	ba 00 00 00 00       	mov    $0x0,%edx
 804888e:	85 d2                	test   %edx,%edx
 8048890:	74 f6                	je     8048888 <register_tm_clones+0x18>
 8048892:	55                   	push   %ebp
 8048893:	89 e5                	mov    %esp,%ebp
 8048895:	83 ec 18             	sub    $0x18,%esp
 8048898:	89 44 24 04          	mov    %eax,0x4(%esp)
 804889c:	c7 04 24 80 c3 04 08 	movl   $0x804c380,(%esp)
 80488a3:	ff d2                	call   *%edx
 80488a5:	c9                   	leave  
 80488a6:	c3                   	ret    
 80488a7:	89 f6                	mov    %esi,%esi
 80488a9:	8d bc 27 00 00 00 00 	lea    0x0(%edi,%eiz,1),%edi

080488b0 <__do_global_dtors_aux>:
 80488b0:	80 3d 88 c3 04 08 00 	cmpb   $0x0,0x804c388
 80488b7:	75 13                	jne    80488cc <__do_global_dtors_aux+0x1c>
 80488b9:	55                   	push   %ebp
 80488ba:	89 e5                	mov    %esp,%ebp
 80488bc:	83 ec 08             	sub    $0x8,%esp
 80488bf:	e8 7c ff ff ff       	call   8048840 <deregister_tm_clones>
 80488c4:	c6 05 88 c3 04 08 01 	movb   $0x1,0x804c388
 80488cb:	c9                   	leave  
 80488cc:	f3 c3                	repz ret 
 80488ce:	66 90                	xchg   %ax,%ax

080488d0 <frame_dummy>:
 80488d0:	a1 10 bf 04 08       	mov    0x804bf10,%eax
 80488d5:	85 c0                	test   %eax,%eax
 80488d7:	74 1f                	je     80488f8 <frame_dummy+0x28>
 80488d9:	b8 00 00 00 00       	mov    $0x0,%eax
 80488de:	85 c0                	test   %eax,%eax
 80488e0:	74 16                	je     80488f8 <frame_dummy+0x28>
 80488e2:	55                   	push   %ebp
 80488e3:	89 e5                	mov    %esp,%ebp
 80488e5:	83 ec 18             	sub    $0x18,%esp
 80488e8:	c7 04 24 10 bf 04 08 	movl   $0x804bf10,(%esp)
 80488ef:	ff d0                	call   *%eax
 80488f1:	c9                   	leave  
 80488f2:	e9 79 ff ff ff       	jmp    8048870 <register_tm_clones>
 80488f7:	90                   	nop
 80488f8:	e9 73 ff ff ff       	jmp    8048870 <register_tm_clones>
 80488fd:	66 90                	xchg   %ax,%ax
 80488ff:	90                   	nop

08048900 <main>:
 8048900:	55                   	push   %ebp
 8048901:	89 e5                	mov    %esp,%ebp
 8048903:	53                   	push   %ebx
 8048904:	83 e4 f0             	and    $0xfffffff0,%esp
 8048907:	83 ec 10             	sub    $0x10,%esp
 804890a:	8b 45 08             	mov    0x8(%ebp),%eax
 804890d:	8b 5d 0c             	mov    0xc(%ebp),%ebx
 8048910:	83 f8 01             	cmp    $0x1,%eax
 8048913:	75 0c                	jne    8048921 <main+0x21>
 8048915:	a1 84 c3 04 08       	mov    0x804c384,%eax
 804891a:	a3 94 c3 04 08       	mov    %eax,0x804c394
 804891f:	eb 64                	jmp    8048985 <main+0x85>
 8048921:	83 f8 02             	cmp    $0x2,%eax
 8048924:	75 41                	jne    8048967 <main+0x67>
 8048926:	c7 44 24 04 6c 9d 04 	movl   $0x8049d6c,0x4(%esp)
 804892d:	08 
 804892e:	8b 43 04             	mov    0x4(%ebx),%eax
 8048931:	89 04 24             	mov    %eax,(%esp)
 8048934:	e8 37 fe ff ff       	call   8048770 <fopen@plt>
 8048939:	a3 94 c3 04 08       	mov    %eax,0x804c394
 804893e:	85 c0                	test   %eax,%eax
 8048940:	75 43                	jne    8048985 <main+0x85>
 8048942:	8b 43 04             	mov    0x4(%ebx),%eax
 8048945:	89 44 24 08          	mov    %eax,0x8(%esp)
 8048949:	8b 03                	mov    (%ebx),%eax
 804894b:	89 44 24 04          	mov    %eax,0x4(%esp)
 804894f:	c7 04 24 6e 9d 04 08 	movl   $0x8049d6e,(%esp)
 8048956:	e8 25 fd ff ff       	call   8048680 <printf@plt>
 804895b:	c7 04 24 08 00 00 00 	movl   $0x8,(%esp)
 8048962:	e8 b9 fd ff ff       	call   8048720 <exit@plt>
 8048967:	8b 03                	mov    (%ebx),%eax
 8048969:	89 44 24 04          	mov    %eax,0x4(%esp)
 804896d:	c7 04 24 8b 9d 04 08 	movl   $0x8049d8b,(%esp)
 8048974:	e8 07 fd ff ff       	call   8048680 <printf@plt>
 8048979:	c7 04 24 08 00 00 00 	movl   $0x8,(%esp)
 8048980:	e8 9b fd ff ff       	call   8048720 <exit@plt>
 8048985:	e8 b8 04 00 00       	call   8048e42 <initialize_bomb>
 804898a:	c7 04 24 b4 9d 04 08 	movl   $0x8049db4,(%esp)
 8048991:	e8 6a fd ff ff       	call   8048700 <puts@plt>
 8048996:	e8 a6 05 00 00       	call   8048f41 <read_line>
 804899b:	89 04 24             	mov    %eax,(%esp)
 804899e:	e8 1d 00 00 00       	call   80489c0 <phase_1>
 80489a3:	e8 cd 06 00 00       	call   8049075 <phase_defused>
 80489a8:	c7 04 24 a5 9d 04 08 	movl   $0x8049da5,(%esp)
 80489af:	e8 4c fd ff ff       	call   8048700 <puts@plt>
 80489b4:	b8 00 00 00 00       	mov    $0x0,%eax
 80489b9:	8b 5d fc             	mov    -0x4(%ebp),%ebx
 80489bc:	c9                   	leave  
 80489bd:	c3                   	ret    
 80489be:	66 90                	xchg   %ax,%ax

080489c0 <phase_1>:
 80489c0:	83 ec 1c             	sub    $0x1c,%esp
 80489c3:	c7 44 24 04 10 9e 04 	movl   $0x8049e10,0x4(%esp)
 80489ca:	08 
 80489cb:	8b 44 24 20          	mov    0x20(%esp),%eax
 80489cf:	89 04 24             	mov    %eax,(%esp)
 80489d2:	e8 fb 03 00 00       	call   8048dd2 <strings_not_equal>
 80489d7:	85 c0                	test   %eax,%eax
 80489d9:	74 05                	je     80489e0 <phase_1+0x20>
 80489db:	e8 e8 04 00 00       	call   8048ec8 <explode_bomb>
 80489e0:	83 c4 1c             	add    $0x1c,%esp
 80489e3:	c3                   	ret    

080489e4 <phase_2>:
 80489e4:	53                   	push   %ebx
 80489e5:	83 ec 38             	sub    $0x38,%esp
 80489e8:	8d 44 24 18          	lea    0x18(%esp),%eax
 80489ec:	89 44 24 04          	mov    %eax,0x4(%esp)
 80489f0:	8b 44 24 40          	mov    0x40(%esp),%eax
 80489f4:	89 04 24             	mov    %eax,(%esp)
 80489f7:	e8 f3 04 00 00       	call   8048eef <read_six_numbers>
 80489fc:	83 7c 24 18 00       	cmpl   $0x0,0x18(%esp)
 8048a01:	79 22                	jns    8048a25 <phase_2+0x41>
 8048a03:	e8 c0 04 00 00       	call   8048ec8 <explode_bomb>
 8048a08:	eb 1b                	jmp    8048a25 <phase_2+0x41>
 8048a0a:	89 d8                	mov    %ebx,%eax
 8048a0c:	03 44 9c 14          	add    0x14(%esp,%ebx,4),%eax
 8048a10:	39 44 9c 18          	cmp    %eax,0x18(%esp,%ebx,4)
 8048a14:	74 05                	je     8048a1b <phase_2+0x37>
 8048a16:	e8 ad 04 00 00       	call   8048ec8 <explode_bomb>
 8048a1b:	83 c3 01             	add    $0x1,%ebx
 8048a1e:	83 fb 06             	cmp    $0x6,%ebx
 8048a21:	75 e7                	jne    8048a0a <phase_2+0x26>
 8048a23:	eb 07                	jmp    8048a2c <phase_2+0x48>
 8048a25:	bb 01 00 00 00       	mov    $0x1,%ebx
 8048a2a:	eb de                	jmp    8048a0a <phase_2+0x26>
 8048a2c:	83 c4 38             	add    $0x38,%esp
 8048a2f:	5b                   	pop    %ebx
 8048a30:	c3                   	ret    

08048a31 <phase_3>:
 8048a31:	83 ec 2c             	sub    $0x2c,%esp
 8048a34:	8d 44 24 18          	lea    0x18(%esp),%eax
 8048a38:	89 44 24 0c          	mov    %eax,0xc(%esp)
 8048a3c:	8d 44 24 1c          	lea    0x1c(%esp),%eax
 8048a40:	89 44 24 08          	mov    %eax,0x8(%esp)
 8048a44:	c7 44 24 04 1d 9f 04 	movl   $0x8049f1d,0x4(%esp)
 8048a4b:	08 
 8048a4c:	8b 44 24 30          	mov    0x30(%esp),%eax
 8048a50:	89 04 24             	mov    %eax,(%esp)
 8048a53:	e8 08 fd ff ff       	call   8048760 <__isoc99_sscanf@plt>
 8048a58:	83 f8 01             	cmp    $0x1,%eax
 8048a5b:	7f 05                	jg     8048a62 <phase_3+0x31>
 8048a5d:	e8 66 04 00 00       	call   8048ec8 <explode_bomb>
 8048a62:	83 7c 24 1c 07       	cmpl   $0x7,0x1c(%esp)
 8048a67:	77 3c                	ja     8048aa5 <phase_3+0x74>
 8048a69:	8b 44 24 1c          	mov    0x1c(%esp),%eax
 8048a6d:	ff 24 85 80 9e 04 08 	jmp    *0x8049e80(,%eax,4)
 8048a74:	b8 4f 03 00 00       	mov    $0x34f,%eax
 8048a79:	eb 3b                	jmp    8048ab6 <phase_3+0x85>
 8048a7b:	b8 37 02 00 00       	mov    $0x237,%eax
 8048a80:	eb 34                	jmp    8048ab6 <phase_3+0x85>
 8048a82:	b8 43 00 00 00       	mov    $0x43,%eax
 8048a87:	eb 2d                	jmp    8048ab6 <phase_3+0x85>
 8048a89:	b8 b8 02 00 00       	mov    $0x2b8,%eax
 8048a8e:	eb 26                	jmp    8048ab6 <phase_3+0x85>
 8048a90:	b8 7b 00 00 00       	mov    $0x7b,%eax
 8048a95:	eb 1f                	jmp    8048ab6 <phase_3+0x85>
 8048a97:	b8 9c 01 00 00       	mov    $0x19c,%eax
 8048a9c:	eb 18                	jmp    8048ab6 <phase_3+0x85>
 8048a9e:	b8 45 03 00 00       	mov    $0x345,%eax
 8048aa3:	eb 11                	jmp    8048ab6 <phase_3+0x85>
 8048aa5:	e8 1e 04 00 00       	call   8048ec8 <explode_bomb>
 8048aaa:	b8 00 00 00 00       	mov    $0x0,%eax
 8048aaf:	eb 05                	jmp    8048ab6 <phase_3+0x85>
 8048ab1:	b8 44 03 00 00       	mov    $0x344,%eax
 8048ab6:	3b 44 24 18          	cmp    0x18(%esp),%eax
 8048aba:	74 05                	je     8048ac1 <phase_3+0x90>
 8048abc:	e8 07 04 00 00       	call   8048ec8 <explode_bomb>
 8048ac1:	83 c4 2c             	add    $0x2c,%esp
 8048ac4:	c3                   	ret    

08048ac5 <func4>:
 8048ac5:	56                   	push   %esi
 8048ac6:	53                   	push   %ebx
 8048ac7:	83 ec 14             	sub    $0x14,%esp
 8048aca:	8b 54 24 20          	mov    0x20(%esp),%edx
 8048ace:	8b 44 24 24          	mov    0x24(%esp),%eax
 8048ad2:	8b 74 24 28          	mov    0x28(%esp),%esi
 8048ad6:	89 f1                	mov    %esi,%ecx
 8048ad8:	29 c1                	sub    %eax,%ecx
 8048ada:	89 cb                	mov    %ecx,%ebx
 8048adc:	c1 eb 1f             	shr    $0x1f,%ebx
 8048adf:	01 d9                	add    %ebx,%ecx
 8048ae1:	d1 f9                	sar    %ecx
 8048ae3:	8d 1c 01             	lea    (%ecx,%eax,1),%ebx
 8048ae6:	39 d3                	cmp    %edx,%ebx
 8048ae8:	7e 17                	jle    8048b01 <func4+0x3c>
 8048aea:	8d 4b ff             	lea    -0x1(%ebx),%ecx
 8048aed:	89 4c 24 08          	mov    %ecx,0x8(%esp)
 8048af1:	89 44 24 04          	mov    %eax,0x4(%esp)
 8048af5:	89 14 24             	mov    %edx,(%esp)
 8048af8:	e8 c8 ff ff ff       	call   8048ac5 <func4>
 8048afd:	01 d8                	add    %ebx,%eax
 8048aff:	eb 1b                	jmp    8048b1c <func4+0x57>
 8048b01:	89 d8                	mov    %ebx,%eax
 8048b03:	39 d3                	cmp    %edx,%ebx
 8048b05:	7d 15                	jge    8048b1c <func4+0x57>
 8048b07:	89 74 24 08          	mov    %esi,0x8(%esp)
 8048b0b:	8d 43 01             	lea    0x1(%ebx),%eax
 8048b0e:	89 44 24 04          	mov    %eax,0x4(%esp)
 8048b12:	89 14 24             	mov    %edx,(%esp)
 8048b15:	e8 ab ff ff ff       	call   8048ac5 <func4>
 8048b1a:	01 d8                	add    %ebx,%eax
 8048b1c:	83 c4 14             	add    $0x14,%esp
 8048b1f:	5b                   	pop    %ebx
 8048b20:	5e                   	pop    %esi
 8048b21:	c3                   	ret    

08048b22 <phase_4>:
 8048b22:	83 ec 2c             	sub    $0x2c,%esp
 8048b25:	8d 44 24 18          	lea    0x18(%esp),%eax
 8048b29:	89 44 24 0c          	mov    %eax,0xc(%esp)
 8048b2d:	8d 44 24 1c          	lea    0x1c(%esp),%eax
 8048b31:	89 44 24 08          	mov    %eax,0x8(%esp)
 8048b35:	c7 44 24 04 1d 9f 04 	movl   $0x8049f1d,0x4(%esp)
 8048b3c:	08 
 8048b3d:	8b 44 24 30          	mov    0x30(%esp),%eax
 8048b41:	89 04 24             	mov    %eax,(%esp)
 8048b44:	e8 17 fc ff ff       	call   8048760 <__isoc99_sscanf@plt>
 8048b49:	83 f8 02             	cmp    $0x2,%eax
 8048b4c:	75 07                	jne    8048b55 <phase_4+0x33>
 8048b4e:	83 7c 24 1c 0e       	cmpl   $0xe,0x1c(%esp)
 8048b53:	76 05                	jbe    8048b5a <phase_4+0x38>
 8048b55:	e8 6e 03 00 00       	call   8048ec8 <explode_bomb>
 8048b5a:	c7 44 24 08 0e 00 00 	movl   $0xe,0x8(%esp)
 8048b61:	00 
 8048b62:	c7 44 24 04 00 00 00 	movl   $0x0,0x4(%esp)
 8048b69:	00 
 8048b6a:	8b 44 24 1c          	mov    0x1c(%esp),%eax
 8048b6e:	89 04 24             	mov    %eax,(%esp)
 8048b71:	e8 4f ff ff ff       	call   8048ac5 <func4>
 8048b76:	83 f8 25             	cmp    $0x25,%eax
 8048b79:	75 07                	jne    8048b82 <phase_4+0x60>
 8048b7b:	83 7c 24 18 25       	cmpl   $0x25,0x18(%esp)
 8048b80:	74 05                	je     8048b87 <phase_4+0x65>
 8048b82:	e8 41 03 00 00       	call   8048ec8 <explode_bomb>
 8048b87:	83 c4 2c             	add    $0x2c,%esp
 8048b8a:	c3                   	ret    

08048b8b <phase_5>:
 8048b8b:	83 ec 2c             	sub    $0x2c,%esp
 8048b8e:	8d 44 24 18          	lea    0x18(%esp),%eax
 8048b92:	89 44 24 0c          	mov    %eax,0xc(%esp)
 8048b96:	8d 44 24 1c          	lea    0x1c(%esp),%eax
 8048b9a:	89 44 24 08          	mov    %eax,0x8(%esp)
 8048b9e:	c7 44 24 04 1d 9f 04 	movl   $0x8049f1d,0x4(%esp)
 8048ba5:	08 
 8048ba6:	8b 44 24 30          	mov    0x30(%esp),%eax
 8048baa:	89 04 24             	mov    %eax,(%esp)
 8048bad:	e8 ae fb ff ff       	call   8048760 <__isoc99_sscanf@plt>
 8048bb2:	83 f8 01             	cmp    $0x1,%eax
 8048bb5:	7f 05                	jg     8048bbc <phase_5+0x31>
 8048bb7:	e8 0c 03 00 00       	call   8048ec8 <explode_bomb>
 8048bbc:	8b 44 24 1c          	mov    0x1c(%esp),%eax
 8048bc0:	83 e0 0f             	and    $0xf,%eax
 8048bc3:	89 44 24 1c          	mov    %eax,0x1c(%esp)
 8048bc7:	83 f8 0f             	cmp    $0xf,%eax
 8048bca:	74 2a                	je     8048bf6 <phase_5+0x6b>
 8048bcc:	b9 00 00 00 00       	mov    $0x0,%ecx
 8048bd1:	ba 00 00 00 00       	mov    $0x0,%edx
 8048bd6:	83 c2 01             	add    $0x1,%edx
 8048bd9:	8b 04 85 a0 9e 04 08 	mov    0x8049ea0(,%eax,4),%eax
 8048be0:	01 c1                	add    %eax,%ecx
 8048be2:	83 f8 0f             	cmp    $0xf,%eax
 8048be5:	75 ef                	jne    8048bd6 <phase_5+0x4b>
 8048be7:	89 44 24 1c          	mov    %eax,0x1c(%esp)
 8048beb:	83 fa 0f             	cmp    $0xf,%edx
 8048bee:	75 06                	jne    8048bf6 <phase_5+0x6b>
 8048bf0:	3b 4c 24 18          	cmp    0x18(%esp),%ecx
 8048bf4:	74 05                	je     8048bfb <phase_5+0x70>
 8048bf6:	e8 cd 02 00 00       	call   8048ec8 <explode_bomb>
 8048bfb:	83 c4 2c             	add    $0x2c,%esp
 8048bfe:	c3                   	ret    

08048bff <phase_6>:
 8048bff:	56                   	push   %esi
 8048c00:	53                   	push   %ebx
 8048c01:	83 ec 44             	sub    $0x44,%esp
 8048c04:	8d 44 24 28          	lea    0x28(%esp),%eax
 8048c08:	89 44 24 04          	mov    %eax,0x4(%esp)
 8048c0c:	8b 44 24 50          	mov    0x50(%esp),%eax
 8048c10:	89 04 24             	mov    %eax,(%esp)
 8048c13:	e8 d7 02 00 00       	call   8048eef <read_six_numbers>
 8048c18:	be 00 00 00 00       	mov    $0x0,%esi
 8048c1d:	8b 44 b4 28          	mov    0x28(%esp,%esi,4),%eax
 8048c21:	83 e8 01             	sub    $0x1,%eax
 8048c24:	83 f8 05             	cmp    $0x5,%eax
 8048c27:	76 05                	jbe    8048c2e <phase_6+0x2f>
 8048c29:	e8 9a 02 00 00       	call   8048ec8 <explode_bomb>
 8048c2e:	83 c6 01             	add    $0x1,%esi
 8048c31:	83 fe 06             	cmp    $0x6,%esi
 8048c34:	75 07                	jne    8048c3d <phase_6+0x3e>
 8048c36:	bb 00 00 00 00       	mov    $0x0,%ebx
 8048c3b:	eb 38                	jmp    8048c75 <phase_6+0x76>
 8048c3d:	89 f3                	mov    %esi,%ebx
 8048c3f:	8b 44 9c 28          	mov    0x28(%esp,%ebx,4),%eax
 8048c43:	39 44 b4 24          	cmp    %eax,0x24(%esp,%esi,4)
 8048c47:	75 05                	jne    8048c4e <phase_6+0x4f>
 8048c49:	e8 7a 02 00 00       	call   8048ec8 <explode_bomb>
 8048c4e:	83 c3 01             	add    $0x1,%ebx
 8048c51:	83 fb 05             	cmp    $0x5,%ebx
 8048c54:	7e e9                	jle    8048c3f <phase_6+0x40>
 8048c56:	eb c5                	jmp    8048c1d <phase_6+0x1e>
 8048c58:	8b 52 08             	mov    0x8(%edx),%edx
 8048c5b:	83 c0 01             	add    $0x1,%eax
 8048c5e:	39 c8                	cmp    %ecx,%eax
 8048c60:	75 f6                	jne    8048c58 <phase_6+0x59>
 8048c62:	eb 05                	jmp    8048c69 <phase_6+0x6a>
 8048c64:	ba 38 c1 04 08       	mov    $0x804c138,%edx
 8048c69:	89 54 b4 10          	mov    %edx,0x10(%esp,%esi,4)
 8048c6d:	83 c3 01             	add    $0x1,%ebx
 8048c70:	83 fb 06             	cmp    $0x6,%ebx
 8048c73:	74 17                	je     8048c8c <phase_6+0x8d>
 8048c75:	89 de                	mov    %ebx,%esi
 8048c77:	8b 4c 9c 28          	mov    0x28(%esp,%ebx,4),%ecx
 8048c7b:	83 f9 01             	cmp    $0x1,%ecx
 8048c7e:	7e e4                	jle    8048c64 <phase_6+0x65>
 8048c80:	b8 01 00 00 00       	mov    $0x1,%eax
 8048c85:	ba 38 c1 04 08       	mov    $0x804c138,%edx
 8048c8a:	eb cc                	jmp    8048c58 <phase_6+0x59>
 8048c8c:	8b 5c 24 10          	mov    0x10(%esp),%ebx
 8048c90:	8d 44 24 14          	lea    0x14(%esp),%eax
 8048c94:	8d 74 24 28          	lea    0x28(%esp),%esi
 8048c98:	89 d9                	mov    %ebx,%ecx
 8048c9a:	8b 10                	mov    (%eax),%edx
 8048c9c:	89 51 08             	mov    %edx,0x8(%ecx)
 8048c9f:	83 c0 04             	add    $0x4,%eax
 8048ca2:	39 f0                	cmp    %esi,%eax
 8048ca4:	74 04                	je     8048caa <phase_6+0xab>
 8048ca6:	89 d1                	mov    %edx,%ecx
 8048ca8:	eb f0                	jmp    8048c9a <phase_6+0x9b>
 8048caa:	c7 42 08 00 00 00 00 	movl   $0x0,0x8(%edx)
 8048cb1:	be 05 00 00 00       	mov    $0x5,%esi
 8048cb6:	8b 43 08             	mov    0x8(%ebx),%eax
 8048cb9:	8b 00                	mov    (%eax),%eax
 8048cbb:	39 03                	cmp    %eax,(%ebx)
 8048cbd:	7e 05                	jle    8048cc4 <phase_6+0xc5>
 8048cbf:	e8 04 02 00 00       	call   8048ec8 <explode_bomb>
 8048cc4:	8b 5b 08             	mov    0x8(%ebx),%ebx
 8048cc7:	83 ee 01             	sub    $0x1,%esi
 8048cca:	75 ea                	jne    8048cb6 <phase_6+0xb7>
 8048ccc:	83 c4 44             	add    $0x44,%esp
 8048ccf:	5b                   	pop    %ebx
 8048cd0:	5e                   	pop    %esi
 8048cd1:	c3                   	ret    

08048cd2 <fun7>:
 8048cd2:	53                   	push   %ebx
 8048cd3:	83 ec 18             	sub    $0x18,%esp
 8048cd6:	8b 54 24 20          	mov    0x20(%esp),%edx
 8048cda:	8b 4c 24 24          	mov    0x24(%esp),%ecx
 8048cde:	85 d2                	test   %edx,%edx
 8048ce0:	74 37                	je     8048d19 <fun7+0x47>
 8048ce2:	8b 1a                	mov    (%edx),%ebx
 8048ce4:	39 cb                	cmp    %ecx,%ebx
 8048ce6:	7e 13                	jle    8048cfb <fun7+0x29>
 8048ce8:	89 4c 24 04          	mov    %ecx,0x4(%esp)
 8048cec:	8b 42 04             	mov    0x4(%edx),%eax
 8048cef:	89 04 24             	mov    %eax,(%esp)
 8048cf2:	e8 db ff ff ff       	call   8048cd2 <fun7>
 8048cf7:	01 c0                	add    %eax,%eax
 8048cf9:	eb 23                	jmp    8048d1e <fun7+0x4c>
 8048cfb:	b8 00 00 00 00       	mov    $0x0,%eax
 8048d00:	39 cb                	cmp    %ecx,%ebx
 8048d02:	74 1a                	je     8048d1e <fun7+0x4c>
 8048d04:	89 4c 24 04          	mov    %ecx,0x4(%esp)
 8048d08:	8b 42 08             	mov    0x8(%edx),%eax
 8048d0b:	89 04 24             	mov    %eax,(%esp)
 8048d0e:	e8 bf ff ff ff       	call   8048cd2 <fun7>
 8048d13:	8d 44 00 01          	lea    0x1(%eax,%eax,1),%eax
 8048d17:	eb 05                	jmp    8048d1e <fun7+0x4c>
 8048d19:	b8 ff ff ff ff       	mov    $0xffffffff,%eax
 8048d1e:	83 c4 18             	add    $0x18,%esp
 8048d21:	5b                   	pop    %ebx
 8048d22:	c3                   	ret    

08048d23 <secret_phase>:
 8048d23:	53                   	push   %ebx
 8048d24:	83 ec 18             	sub    $0x18,%esp
 8048d27:	e8 15 02 00 00       	call   8048f41 <read_line>
 8048d2c:	c7 44 24 08 0a 00 00 	movl   $0xa,0x8(%esp)
 8048d33:	00 
 8048d34:	c7 44 24 04 00 00 00 	movl   $0x0,0x4(%esp)
 8048d3b:	00 
 8048d3c:	89 04 24             	mov    %eax,(%esp)
 8048d3f:	e8 7c fa ff ff       	call   80487c0 <strtol@plt>
 8048d44:	89 c3                	mov    %eax,%ebx
 8048d46:	8d 40 ff             	lea    -0x1(%eax),%eax
 8048d49:	3d e8 03 00 00       	cmp    $0x3e8,%eax
 8048d4e:	76 05                	jbe    8048d55 <secret_phase+0x32>
 8048d50:	e8 73 01 00 00       	call   8048ec8 <explode_bomb>
 8048d55:	89 5c 24 04          	mov    %ebx,0x4(%esp)
 8048d59:	c7 04 24 84 c0 04 08 	movl   $0x804c084,(%esp)
 8048d60:	e8 6d ff ff ff       	call   8048cd2 <fun7>
 8048d65:	85 c0                	test   %eax,%eax
 8048d67:	74 05                	je     8048d6e <secret_phase+0x4b>
 8048d69:	e8 5a 01 00 00       	call   8048ec8 <explode_bomb>
 8048d6e:	c7 04 24 48 9e 04 08 	movl   $0x8049e48,(%esp)
 8048d75:	e8 86 f9 ff ff       	call   8048700 <puts@plt>
 8048d7a:	e8 f6 02 00 00       	call   8049075 <phase_defused>
 8048d7f:	83 c4 18             	add    $0x18,%esp
 8048d82:	5b                   	pop    %ebx
 8048d83:	c3                   	ret    
 8048d84:	66 90                	xchg   %ax,%ax
 8048d86:	66 90                	xchg   %ax,%ax
 8048d88:	66 90                	xchg   %ax,%ax
 8048d8a:	66 90                	xchg   %ax,%ax
 8048d8c:	66 90                	xchg   %ax,%ax
 8048d8e:	66 90                	xchg   %ax,%ax

08048d90 <invalid_phase>:
 8048d90:	83 ec 1c             	sub    $0x1c,%esp
 8048d93:	8b 44 24 20          	mov    0x20(%esp),%eax
 8048d97:	89 44 24 04          	mov    %eax,0x4(%esp)
 8048d9b:	c7 04 24 e0 9e 04 08 	movl   $0x8049ee0,(%esp)
 8048da2:	e8 d9 f8 ff ff       	call   8048680 <printf@plt>
 8048da7:	c7 04 24 08 00 00 00 	movl   $0x8,(%esp)
 8048dae:	e8 6d f9 ff ff       	call   8048720 <exit@plt>

08048db3 <string_length>:
 8048db3:	8b 54 24 04          	mov    0x4(%esp),%edx
 8048db7:	80 3a 00             	cmpb   $0x0,(%edx)
 8048dba:	74 10                	je     8048dcc <string_length+0x19>
 8048dbc:	b8 00 00 00 00       	mov    $0x0,%eax
 8048dc1:	83 c0 01             	add    $0x1,%eax
 8048dc4:	80 3c 02 00          	cmpb   $0x0,(%edx,%eax,1)
 8048dc8:	75 f7                	jne    8048dc1 <string_length+0xe>
 8048dca:	f3 c3                	repz ret 
 8048dcc:	b8 00 00 00 00       	mov    $0x0,%eax
 8048dd1:	c3                   	ret    

08048dd2 <strings_not_equal>:
 8048dd2:	57                   	push   %edi
 8048dd3:	56                   	push   %esi
 8048dd4:	53                   	push   %ebx
 8048dd5:	83 ec 04             	sub    $0x4,%esp
 8048dd8:	8b 5c 24 14          	mov    0x14(%esp),%ebx
 8048ddc:	8b 74 24 18          	mov    0x18(%esp),%esi
 8048de0:	89 1c 24             	mov    %ebx,(%esp)
 8048de3:	e8 cb ff ff ff       	call   8048db3 <string_length>
 8048de8:	89 c7                	mov    %eax,%edi
 8048dea:	89 34 24             	mov    %esi,(%esp)
 8048ded:	e8 c1 ff ff ff       	call   8048db3 <string_length>
 8048df2:	ba 01 00 00 00       	mov    $0x1,%edx
 8048df7:	39 c7                	cmp    %eax,%edi
 8048df9:	75 3e                	jne    8048e39 <strings_not_equal+0x67>
 8048dfb:	0f b6 03             	movzbl (%ebx),%eax
 8048dfe:	84 c0                	test   %al,%al
 8048e00:	74 24                	je     8048e26 <strings_not_equal+0x54>
 8048e02:	3a 06                	cmp    (%esi),%al
 8048e04:	74 0c                	je     8048e12 <strings_not_equal+0x40>
 8048e06:	eb 25                	jmp    8048e2d <strings_not_equal+0x5b>
 8048e08:	3a 06                	cmp    (%esi),%al
 8048e0a:	8d b6 00 00 00 00    	lea    0x0(%esi),%esi
 8048e10:	75 22                	jne    8048e34 <strings_not_equal+0x62>
 8048e12:	83 c3 01             	add    $0x1,%ebx
 8048e15:	83 c6 01             	add    $0x1,%esi
 8048e18:	0f b6 03             	movzbl (%ebx),%eax
 8048e1b:	84 c0                	test   %al,%al
 8048e1d:	75 e9                	jne    8048e08 <strings_not_equal+0x36>
 8048e1f:	ba 00 00 00 00       	mov    $0x0,%edx
 8048e24:	eb 13                	jmp    8048e39 <strings_not_equal+0x67>
 8048e26:	ba 00 00 00 00       	mov    $0x0,%edx
 8048e2b:	eb 0c                	jmp    8048e39 <strings_not_equal+0x67>
 8048e2d:	ba 01 00 00 00       	mov    $0x1,%edx
 8048e32:	eb 05                	jmp    8048e39 <strings_not_equal+0x67>
 8048e34:	ba 01 00 00 00       	mov    $0x1,%edx
 8048e39:	89 d0                	mov    %edx,%eax
 8048e3b:	83 c4 04             	add    $0x4,%esp
 8048e3e:	5b                   	pop    %ebx
 8048e3f:	5e                   	pop    %esi
 8048e40:	5f                   	pop    %edi
 8048e41:	c3                   	ret    

08048e42 <initialize_bomb>:
 8048e42:	f3 c3                	repz ret 

08048e44 <initialize_bomb_solve>:
 8048e44:	f3 c3                	repz ret 

08048e46 <blank_line>:
 8048e46:	56                   	push   %esi
 8048e47:	53                   	push   %ebx
 8048e48:	83 ec 04             	sub    $0x4,%esp
 8048e4b:	8b 5c 24 10          	mov    0x10(%esp),%ebx
 8048e4f:	eb 16                	jmp    8048e67 <blank_line+0x21>
 8048e51:	e8 9a f9 ff ff       	call   80487f0 <__ctype_b_loc@plt>
 8048e56:	83 c3 01             	add    $0x1,%ebx
 8048e59:	89 f2                	mov    %esi,%edx
 8048e5b:	0f be f2             	movsbl %dl,%esi
 8048e5e:	8b 00                	mov    (%eax),%eax
 8048e60:	f6 44 70 01 20       	testb  $0x20,0x1(%eax,%esi,2)
 8048e65:	74 10                	je     8048e77 <blank_line+0x31>
 8048e67:	0f b6 33             	movzbl (%ebx),%esi
 8048e6a:	89 f0                	mov    %esi,%eax
 8048e6c:	84 c0                	test   %al,%al
 8048e6e:	75 e1                	jne    8048e51 <blank_line+0xb>
 8048e70:	b8 01 00 00 00       	mov    $0x1,%eax
 8048e75:	eb 05                	jmp    8048e7c <blank_line+0x36>
 8048e77:	b8 00 00 00 00       	mov    $0x0,%eax
 8048e7c:	83 c4 04             	add    $0x4,%esp
 8048e7f:	5b                   	pop    %ebx
 8048e80:	5e                   	pop    %esi
 8048e81:	c3                   	ret    

08048e82 <skip>:
 8048e82:	53                   	push   %ebx
 8048e83:	83 ec 18             	sub    $0x18,%esp
 8048e86:	a1 94 c3 04 08       	mov    0x804c394,%eax
 8048e8b:	89 44 24 08          	mov    %eax,0x8(%esp)
 8048e8f:	c7 44 24 04 50 00 00 	movl   $0x50,0x4(%esp)
 8048e96:	00 
 8048e97:	a1 90 c3 04 08       	mov    0x804c390,%eax
 8048e9c:	8d 04 80             	lea    (%eax,%eax,4),%eax
 8048e9f:	c1 e0 04             	shl    $0x4,%eax
 8048ea2:	05 a0 c3 04 08       	add    $0x804c3a0,%eax
 8048ea7:	89 04 24             	mov    %eax,(%esp)
 8048eaa:	e8 f1 f7 ff ff       	call   80486a0 <fgets@plt>
 8048eaf:	89 c3                	mov    %eax,%ebx
 8048eb1:	85 c0                	test   %eax,%eax
 8048eb3:	74 0c                	je     8048ec1 <skip+0x3f>
 8048eb5:	89 04 24             	mov    %eax,(%esp)
 8048eb8:	e8 89 ff ff ff       	call   8048e46 <blank_line>
 8048ebd:	85 c0                	test   %eax,%eax
 8048ebf:	75 c5                	jne    8048e86 <skip+0x4>
 8048ec1:	89 d8                	mov    %ebx,%eax
 8048ec3:	83 c4 18             	add    $0x18,%esp
 8048ec6:	5b                   	pop    %ebx
 8048ec7:	c3                   	ret    

08048ec8 <explode_bomb>:
 8048ec8:	83 ec 1c             	sub    $0x1c,%esp
 8048ecb:	c7 04 24 f1 9e 04 08 	movl   $0x8049ef1,(%esp)
 8048ed2:	e8 29 f8 ff ff       	call   8048700 <puts@plt>
 8048ed7:	c7 04 24 fa 9e 04 08 	movl   $0x8049efa,(%esp)
 8048ede:	e8 1d f8 ff ff       	call   8048700 <puts@plt>
 8048ee3:	c7 04 24 08 00 00 00 	movl   $0x8,(%esp)
 8048eea:	e8 31 f8 ff ff       	call   8048720 <exit@plt>

08048eef <read_six_numbers>:
 8048eef:	83 ec 2c             	sub    $0x2c,%esp
 8048ef2:	8b 44 24 34          	mov    0x34(%esp),%eax
 8048ef6:	8d 50 14             	lea    0x14(%eax),%edx
 8048ef9:	89 54 24 1c          	mov    %edx,0x1c(%esp)
 8048efd:	8d 50 10             	lea    0x10(%eax),%edx
 8048f00:	89 54 24 18          	mov    %edx,0x18(%esp)
 8048f04:	8d 50 0c             	lea    0xc(%eax),%edx
 8048f07:	89 54 24 14          	mov    %edx,0x14(%esp)
 8048f0b:	8d 50 08             	lea    0x8(%eax),%edx
 8048f0e:	89 54 24 10          	mov    %edx,0x10(%esp)
 8048f12:	8d 50 04             	lea    0x4(%eax),%edx
 8048f15:	89 54 24 0c          	mov    %edx,0xc(%esp)
 8048f19:	89 44 24 08          	mov    %eax,0x8(%esp)
 8048f1d:	c7 44 24 04 11 9f 04 	movl   $0x8049f11,0x4(%esp)
 8048f24:	08 
 8048f25:	8b 44 24 30          	mov    0x30(%esp),%eax
 8048f29:	89 04 24             	mov    %eax,(%esp)
 8048f2c:	e8 2f f8 ff ff       	call   8048760 <__isoc99_sscanf@plt>
 8048f31:	83 f8 05             	cmp    $0x5,%eax
 8048f34:	7f 05                	jg     8048f3b <read_six_numbers+0x4c>
 8048f36:	e8 8d ff ff ff       	call   8048ec8 <explode_bomb>
 8048f3b:	83 c4 2c             	add    $0x2c,%esp
 8048f3e:	66 90                	xchg   %ax,%ax
 8048f40:	c3                   	ret    

08048f41 <read_line>:
 8048f41:	57                   	push   %edi
 8048f42:	56                   	push   %esi
 8048f43:	53                   	push   %ebx
 8048f44:	83 ec 10             	sub    $0x10,%esp
 8048f47:	e8 36 ff ff ff       	call   8048e82 <skip>
 8048f4c:	85 c0                	test   %eax,%eax
 8048f4e:	75 6c                	jne    8048fbc <read_line+0x7b>
 8048f50:	a1 84 c3 04 08       	mov    0x804c384,%eax
 8048f55:	39 05 94 c3 04 08    	cmp    %eax,0x804c394
 8048f5b:	75 18                	jne    8048f75 <read_line+0x34>
 8048f5d:	c7 04 24 23 9f 04 08 	movl   $0x8049f23,(%esp)
 8048f64:	e8 97 f7 ff ff       	call   8048700 <puts@plt>
 8048f69:	c7 04 24 08 00 00 00 	movl   $0x8,(%esp)
 8048f70:	e8 ab f7 ff ff       	call   8048720 <exit@plt>
 8048f75:	c7 04 24 41 9f 04 08 	movl   $0x8049f41,(%esp)
 8048f7c:	e8 6f f7 ff ff       	call   80486f0 <getenv@plt>
 8048f81:	85 c0                	test   %eax,%eax
 8048f83:	74 0c                	je     8048f91 <read_line+0x50>
 8048f85:	c7 04 24 00 00 00 00 	movl   $0x0,(%esp)
 8048f8c:	e8 8f f7 ff ff       	call   8048720 <exit@plt>
 8048f91:	a1 84 c3 04 08       	mov    0x804c384,%eax
 8048f96:	a3 94 c3 04 08       	mov    %eax,0x804c394
 8048f9b:	e8 e2 fe ff ff       	call   8048e82 <skip>
 8048fa0:	85 c0                	test   %eax,%eax
 8048fa2:	75 18                	jne    8048fbc <read_line+0x7b>
 8048fa4:	c7 04 24 23 9f 04 08 	movl   $0x8049f23,(%esp)
 8048fab:	e8 50 f7 ff ff       	call   8048700 <puts@plt>
 8048fb0:	c7 04 24 00 00 00 00 	movl   $0x0,(%esp)
 8048fb7:	e8 64 f7 ff ff       	call   8048720 <exit@plt>
 8048fbc:	8b 15 90 c3 04 08    	mov    0x804c390,%edx
 8048fc2:	8d 1c 92             	lea    (%edx,%edx,4),%ebx
 8048fc5:	c1 e3 04             	shl    $0x4,%ebx
 8048fc8:	81 c3 a0 c3 04 08    	add    $0x804c3a0,%ebx
 8048fce:	89 df                	mov    %ebx,%edi
 8048fd0:	b8 00 00 00 00       	mov    $0x0,%eax
 8048fd5:	b9 ff ff ff ff       	mov    $0xffffffff,%ecx
 8048fda:	f2 ae                	repnz scas %es:(%edi),%al
 8048fdc:	f7 d1                	not    %ecx
 8048fde:	83 e9 01             	sub    $0x1,%ecx
 8048fe1:	83 f9 4e             	cmp    $0x4e,%ecx
 8048fe4:	7e 6f                	jle    8049055 <read_line+0x114>
 8048fe6:	c7 04 24 4c 9f 04 08 	movl   $0x8049f4c,(%esp)
 8048fed:	e8 0e f7 ff ff       	call   8048700 <puts@plt>
 8048ff2:	a1 90 c3 04 08       	mov    0x804c390,%eax
 8048ff7:	8d 50 01             	lea    0x1(%eax),%edx
 8048ffa:	89 15 90 c3 04 08    	mov    %edx,0x804c390
 8049000:	6b c0 50             	imul   $0x50,%eax,%eax
 8049003:	8d 90 a0 c3 04 08    	lea    0x804c3a0(%eax),%edx
 8049009:	89 d7                	mov    %edx,%edi
 804900b:	be 67 9f 04 08       	mov    $0x8049f67,%esi
 8049010:	b8 10 00 00 00       	mov    $0x10,%eax
 8049015:	f6 c2 01             	test   $0x1,%dl
 8049018:	74 03                	je     804901d <read_line+0xdc>
 804901a:	a4                   	movsb  %ds:(%esi),%es:(%edi)
 804901b:	b0 0f                	mov    $0xf,%al
 804901d:	f7 c7 02 00 00 00    	test   $0x2,%edi
 8049023:	74 05                	je     804902a <read_line+0xe9>
 8049025:	66 a5                	movsw  %ds:(%esi),%es:(%edi)
 8049027:	83 e8 02             	sub    $0x2,%eax
 804902a:	89 c1                	mov    %eax,%ecx
 804902c:	c1 e9 02             	shr    $0x2,%ecx
 804902f:	f3 a5                	rep movsl %ds:(%esi),%es:(%edi)
 8049031:	ba 00 00 00 00       	mov    $0x0,%edx
 8049036:	a8 02                	test   $0x2,%al
 8049038:	74 0b                	je     8049045 <read_line+0x104>
 804903a:	0f b7 16             	movzwl (%esi),%edx
 804903d:	66 89 17             	mov    %dx,(%edi)
 8049040:	ba 02 00 00 00       	mov    $0x2,%edx
 8049045:	a8 01                	test   $0x1,%al
 8049047:	74 07                	je     8049050 <read_line+0x10f>
 8049049:	0f b6 04 16          	movzbl (%esi,%edx,1),%eax
 804904d:	88 04 17             	mov    %al,(%edi,%edx,1)
 8049050:	e8 73 fe ff ff       	call   8048ec8 <explode_bomb>
 8049055:	8d 04 92             	lea    (%edx,%edx,4),%eax
 8049058:	c1 e0 04             	shl    $0x4,%eax
 804905b:	c6 84 01 9f c3 04 08 	movb   $0x0,0x804c39f(%ecx,%eax,1)
 8049062:	00 
 8049063:	83 c2 01             	add    $0x1,%edx
 8049066:	89 15 90 c3 04 08    	mov    %edx,0x804c390
 804906c:	89 d8                	mov    %ebx,%eax
 804906e:	83 c4 10             	add    $0x10,%esp
 8049071:	5b                   	pop    %ebx
 8049072:	5e                   	pop    %esi
 8049073:	5f                   	pop    %edi
 8049074:	c3                   	ret    

08049075 <phase_defused>:
 8049075:	83 3d 90 c3 04 08 06 	cmpl   $0x6,0x804c390
 804907c:	75 7e                	jne    80490fc <phase_defused+0x87>
 804907e:	81 ec 8c 00 00 00    	sub    $0x8c,%esp
 8049084:	8d 44 24 30          	lea    0x30(%esp),%eax
 8049088:	89 44 24 10          	mov    %eax,0x10(%esp)
 804908c:	8d 44 24 28          	lea    0x28(%esp),%eax
 8049090:	89 44 24 0c          	mov    %eax,0xc(%esp)
 8049094:	8d 44 24 2c          	lea    0x2c(%esp),%eax
 8049098:	89 44 24 08          	mov    %eax,0x8(%esp)
 804909c:	c7 44 24 04 77 9f 04 	movl   $0x8049f77,0x4(%esp)
 80490a3:	08 
 80490a4:	c7 04 24 90 c4 04 08 	movl   $0x804c490,(%esp)
 80490ab:	e8 b0 f6 ff ff       	call   8048760 <__isoc99_sscanf@plt>
 80490b0:	83 f8 03             	cmp    $0x3,%eax
 80490b3:	75 35                	jne    80490ea <phase_defused+0x75>
 80490b5:	c7 44 24 04 80 9f 04 	movl   $0x8049f80,0x4(%esp)
 80490bc:	08 
 80490bd:	8d 44 24 30          	lea    0x30(%esp),%eax
 80490c1:	89 04 24             	mov    %eax,(%esp)
 80490c4:	e8 09 fd ff ff       	call   8048dd2 <strings_not_equal>
 80490c9:	85 c0                	test   %eax,%eax
 80490cb:	75 1d                	jne    80490ea <phase_defused+0x75>
 80490cd:	c7 04 24 e4 9f 04 08 	movl   $0x8049fe4,(%esp)
 80490d4:	e8 27 f6 ff ff       	call   8048700 <puts@plt>
 80490d9:	c7 04 24 0c a0 04 08 	movl   $0x804a00c,(%esp)
 80490e0:	e8 1b f6 ff ff       	call   8048700 <puts@plt>
 80490e5:	e8 39 fc ff ff       	call   8048d23 <secret_phase>
 80490ea:	c7 04 24 44 a0 04 08 	movl   $0x804a044,(%esp)
 80490f1:	e8 0a f6 ff ff       	call   8048700 <puts@plt>
 80490f6:	81 c4 8c 00 00 00    	add    $0x8c,%esp
 80490fc:	f3 c3                	repz ret 
 80490fe:	66 90                	xchg   %ax,%ax

08049100 <sigalrm_handler>:
 8049100:	83 ec 1c             	sub    $0x1c,%esp
 8049103:	c7 44 24 08 00 00 00 	movl   $0x0,0x8(%esp)
 804910a:	00 
 804910b:	c7 44 24 04 70 a0 04 	movl   $0x804a070,0x4(%esp)
 8049112:	08 
 8049113:	a1 80 c3 04 08       	mov    0x804c380,%eax
 8049118:	89 04 24             	mov    %eax,(%esp)
 804911b:	e8 20 f6 ff ff       	call   8048740 <fprintf@plt>
 8049120:	c7 04 24 01 00 00 00 	movl   $0x1,(%esp)
 8049127:	e8 f4 f5 ff ff       	call   8048720 <exit@plt>

0804912c <rio_readlineb>:
 804912c:	55                   	push   %ebp
 804912d:	57                   	push   %edi
 804912e:	56                   	push   %esi
 804912f:	53                   	push   %ebx
 8049130:	83 ec 3c             	sub    $0x3c,%esp
 8049133:	89 d5                	mov    %edx,%ebp
 8049135:	83 f9 01             	cmp    $0x1,%ecx
 8049138:	0f 86 c6 00 00 00    	jbe    8049204 <rio_readlineb+0xd8>
 804913e:	89 c3                	mov    %eax,%ebx
 8049140:	89 4c 24 1c          	mov    %ecx,0x1c(%esp)
 8049144:	c7 44 24 10 01 00 00 	movl   $0x1,0x10(%esp)
 804914b:	00 
 804914c:	8d 78 0c             	lea    0xc(%eax),%edi
 804914f:	eb 34                	jmp    8049185 <rio_readlineb+0x59>
 8049151:	c7 44 24 08 00 20 00 	movl   $0x2000,0x8(%esp)
 8049158:	00 
 8049159:	89 7c 24 04          	mov    %edi,0x4(%esp)
 804915d:	8b 03                	mov    (%ebx),%eax
 804915f:	89 04 24             	mov    %eax,(%esp)
 8049162:	e8 09 f5 ff ff       	call   8048670 <read@plt>
 8049167:	89 43 04             	mov    %eax,0x4(%ebx)
 804916a:	85 c0                	test   %eax,%eax
 804916c:	79 0f                	jns    804917d <rio_readlineb+0x51>
 804916e:	e8 0d f6 ff ff       	call   8048780 <__errno_location@plt>
 8049173:	83 38 04             	cmpl   $0x4,(%eax)
 8049176:	74 0d                	je     8049185 <rio_readlineb+0x59>
 8049178:	e9 99 00 00 00       	jmp    8049216 <rio_readlineb+0xea>
 804917d:	85 c0                	test   %eax,%eax
 804917f:	90                   	nop
 8049180:	74 66                	je     80491e8 <rio_readlineb+0xbc>
 8049182:	89 7b 08             	mov    %edi,0x8(%ebx)
 8049185:	8b 73 04             	mov    0x4(%ebx),%esi
 8049188:	85 f6                	test   %esi,%esi
 804918a:	7e c5                	jle    8049151 <rio_readlineb+0x25>
 804918c:	85 f6                	test   %esi,%esi
 804918e:	0f 95 c0             	setne  %al
 8049191:	0f b6 c0             	movzbl %al,%eax
 8049194:	89 44 24 14          	mov    %eax,0x14(%esp)
 8049198:	8b 4b 08             	mov    0x8(%ebx),%ecx
 804919b:	89 44 24 08          	mov    %eax,0x8(%esp)
 804919f:	89 4c 24 18          	mov    %ecx,0x18(%esp)
 80491a3:	89 4c 24 04          	mov    %ecx,0x4(%esp)
 80491a7:	8d 54 24 2f          	lea    0x2f(%esp),%edx
 80491ab:	89 14 24             	mov    %edx,(%esp)
 80491ae:	e8 dd f4 ff ff       	call   8048690 <memcpy@plt>
 80491b3:	8b 4c 24 18          	mov    0x18(%esp),%ecx
 80491b7:	8b 54 24 14          	mov    0x14(%esp),%edx
 80491bb:	01 d1                	add    %edx,%ecx
 80491bd:	89 4b 08             	mov    %ecx,0x8(%ebx)
 80491c0:	29 d6                	sub    %edx,%esi
 80491c2:	89 73 04             	mov    %esi,0x4(%ebx)
 80491c5:	83 fa 01             	cmp    $0x1,%edx
 80491c8:	75 11                	jne    80491db <rio_readlineb+0xaf>
 80491ca:	83 c5 01             	add    $0x1,%ebp
 80491cd:	0f b6 44 24 2f       	movzbl 0x2f(%esp),%eax
 80491d2:	88 45 ff             	mov    %al,-0x1(%ebp)
 80491d5:	3c 0a                	cmp    $0xa,%al
 80491d7:	75 1a                	jne    80491f3 <rio_readlineb+0xc7>
 80491d9:	eb 31                	jmp    804920c <rio_readlineb+0xe0>
 80491db:	83 7c 24 14 00       	cmpl   $0x0,0x14(%esp)
 80491e0:	75 3b                	jne    804921d <rio_readlineb+0xf1>
 80491e2:	8b 44 24 10          	mov    0x10(%esp),%eax
 80491e6:	eb 04                	jmp    80491ec <rio_readlineb+0xc0>
 80491e8:	8b 44 24 10          	mov    0x10(%esp),%eax
 80491ec:	83 f8 01             	cmp    $0x1,%eax
 80491ef:	75 1b                	jne    804920c <rio_readlineb+0xe0>
 80491f1:	eb 31                	jmp    8049224 <rio_readlineb+0xf8>
 80491f3:	83 44 24 10 01       	addl   $0x1,0x10(%esp)
 80491f8:	8b 44 24 1c          	mov    0x1c(%esp),%eax
 80491fc:	39 44 24 10          	cmp    %eax,0x10(%esp)
 8049200:	74 0a                	je     804920c <rio_readlineb+0xe0>
 8049202:	eb 81                	jmp    8049185 <rio_readlineb+0x59>
 8049204:	c7 44 24 10 01 00 00 	movl   $0x1,0x10(%esp)
 804920b:	00 
 804920c:	c6 45 00 00          	movb   $0x0,0x0(%ebp)
 8049210:	8b 44 24 10          	mov    0x10(%esp),%eax
 8049214:	eb 13                	jmp    8049229 <rio_readlineb+0xfd>
 8049216:	b8 ff ff ff ff       	mov    $0xffffffff,%eax
 804921b:	eb 0c                	jmp    8049229 <rio_readlineb+0xfd>
 804921d:	b8 ff ff ff ff       	mov    $0xffffffff,%eax
 8049222:	eb 05                	jmp    8049229 <rio_readlineb+0xfd>
 8049224:	b8 00 00 00 00       	mov    $0x0,%eax
 8049229:	83 c4 3c             	add    $0x3c,%esp
 804922c:	5b                   	pop    %ebx
 804922d:	5e                   	pop    %esi
 804922e:	5f                   	pop    %edi
 804922f:	5d                   	pop    %ebp
 8049230:	c3                   	ret    

08049231 <submitr>:
 8049231:	55                   	push   %ebp
 8049232:	57                   	push   %edi
 8049233:	56                   	push   %esi
 8049234:	53                   	push   %ebx
 8049235:	81 ec 5c a0 00 00    	sub    $0xa05c,%esp
 804923b:	8b 9c 24 84 a0 00 00 	mov    0xa084(%esp),%ebx
 8049242:	c7 84 24 30 20 00 00 	movl   $0x0,0x2030(%esp)
 8049249:	00 00 00 00 
 804924d:	c7 44 24 08 00 00 00 	movl   $0x0,0x8(%esp)
 8049254:	00 
 8049255:	c7 44 24 04 01 00 00 	movl   $0x1,0x4(%esp)
 804925c:	00 
 804925d:	c7 04 24 02 00 00 00 	movl   $0x2,(%esp)
 8049264:	e8 37 f5 ff ff       	call   80487a0 <socket@plt>
 8049269:	89 c5                	mov    %eax,%ebp
 804926b:	85 c0                	test   %eax,%eax
 804926d:	79 55                	jns    80492c4 <submitr+0x93>
 804926f:	8b 84 24 88 a0 00 00 	mov    0xa088(%esp),%eax
 8049276:	c7 00 45 72 72 6f    	movl   $0x6f727245,(%eax)
 804927c:	c7 40 04 72 3a 20 43 	movl   $0x43203a72,0x4(%eax)
 8049283:	c7 40 08 6c 69 65 6e 	movl   $0x6e65696c,0x8(%eax)
 804928a:	c7 40 0c 74 20 75 6e 	movl   $0x6e752074,0xc(%eax)
 8049291:	c7 40 10 61 62 6c 65 	movl   $0x656c6261,0x10(%eax)
 8049298:	c7 40 14 20 74 6f 20 	movl   $0x206f7420,0x14(%eax)
 804929f:	c7 40 18 63 72 65 61 	movl   $0x61657263,0x18(%eax)
 80492a6:	c7 40 1c 74 65 20 73 	movl   $0x73206574,0x1c(%eax)
 80492ad:	c7 40 20 6f 63 6b 65 	movl   $0x656b636f,0x20(%eax)
 80492b4:	66 c7 40 24 74 00    	movw   $0x74,0x24(%eax)
 80492ba:	b8 ff ff ff ff       	mov    $0xffffffff,%eax
 80492bf:	e9 5e 07 00 00       	jmp    8049a22 <submitr+0x7f1>
 80492c4:	8b 84 24 70 a0 00 00 	mov    0xa070(%esp),%eax
 80492cb:	89 04 24             	mov    %eax,(%esp)
 80492ce:	e8 dd f4 ff ff       	call   80487b0 <gethostbyname@plt>
 80492d3:	85 c0                	test   %eax,%eax
 80492d5:	75 6f                	jne    8049346 <submitr+0x115>
 80492d7:	8b 84 24 88 a0 00 00 	mov    0xa088(%esp),%eax
 80492de:	c7 00 45 72 72 6f    	movl   $0x6f727245,(%eax)
 80492e4:	c7 40 04 72 3a 20 44 	movl   $0x44203a72,0x4(%eax)
 80492eb:	c7 40 08 4e 53 20 69 	movl   $0x6920534e,0x8(%eax)
 80492f2:	c7 40 0c 73 20 75 6e 	movl   $0x6e752073,0xc(%eax)
 80492f9:	c7 40 10 61 62 6c 65 	movl   $0x656c6261,0x10(%eax)
 8049300:	c7 40 14 20 74 6f 20 	movl   $0x206f7420,0x14(%eax)
 8049307:	c7 40 18 72 65 73 6f 	movl   $0x6f736572,0x18(%eax)
 804930e:	c7 40 1c 6c 76 65 20 	movl   $0x2065766c,0x1c(%eax)
 8049315:	c7 40 20 73 65 72 76 	movl   $0x76726573,0x20(%eax)
 804931c:	c7 40 24 65 72 20 61 	movl   $0x61207265,0x24(%eax)
 8049323:	c7 40 28 64 64 72 65 	movl   $0x65726464,0x28(%eax)
 804932a:	66 c7 40 2c 73 73    	movw   $0x7373,0x2c(%eax)
 8049330:	c6 40 2e 00          	movb   $0x0,0x2e(%eax)
 8049334:	89 2c 24             	mov    %ebp,(%esp)
 8049337:	e8 a4 f4 ff ff       	call   80487e0 <close@plt>
 804933c:	b8 ff ff ff ff       	mov    $0xffffffff,%eax
 8049341:	e9 dc 06 00 00       	jmp    8049a22 <submitr+0x7f1>
 8049346:	8d b4 24 40 a0 00 00 	lea    0xa040(%esp),%esi
 804934d:	c7 84 24 40 a0 00 00 	movl   $0x0,0xa040(%esp)
 8049354:	00 00 00 00 
 8049358:	c7 84 24 44 a0 00 00 	movl   $0x0,0xa044(%esp)
 804935f:	00 00 00 00 
 8049363:	c7 84 24 48 a0 00 00 	movl   $0x0,0xa048(%esp)
 804936a:	00 00 00 00 
 804936e:	c7 84 24 4c a0 00 00 	movl   $0x0,0xa04c(%esp)
 8049375:	00 00 00 00 
 8049379:	66 c7 84 24 40 a0 00 	movw   $0x2,0xa040(%esp)
 8049380:	00 02 00 
 8049383:	8b 50 0c             	mov    0xc(%eax),%edx
 8049386:	89 54 24 08          	mov    %edx,0x8(%esp)
 804938a:	8d 94 24 44 a0 00 00 	lea    0xa044(%esp),%edx
 8049391:	89 54 24 04          	mov    %edx,0x4(%esp)
 8049395:	8b 40 10             	mov    0x10(%eax),%eax
 8049398:	8b 00                	mov    (%eax),%eax
 804939a:	89 04 24             	mov    %eax,(%esp)
 804939d:	e8 2e f3 ff ff       	call   80486d0 <bcopy@plt>
 80493a2:	0f b7 84 24 74 a0 00 	movzwl 0xa074(%esp),%eax
 80493a9:	00 
 80493aa:	66 c1 c8 08          	ror    $0x8,%ax
 80493ae:	66 89 84 24 42 a0 00 	mov    %ax,0xa042(%esp)
 80493b5:	00 
 80493b6:	c7 44 24 08 10 00 00 	movl   $0x10,0x8(%esp)
 80493bd:	00 
 80493be:	89 74 24 04          	mov    %esi,0x4(%esp)
 80493c2:	89 2c 24             	mov    %ebp,(%esp)
 80493c5:	e8 06 f4 ff ff       	call   80487d0 <connect@plt>
 80493ca:	85 c0                	test   %eax,%eax
 80493cc:	79 61                	jns    804942f <submitr+0x1fe>
 80493ce:	8b 84 24 88 a0 00 00 	mov    0xa088(%esp),%eax
 80493d5:	c7 00 45 72 72 6f    	movl   $0x6f727245,(%eax)
 80493db:	c7 40 04 72 3a 20 55 	movl   $0x55203a72,0x4(%eax)
 80493e2:	c7 40 08 6e 61 62 6c 	movl   $0x6c62616e,0x8(%eax)
 80493e9:	c7 40 0c 65 20 74 6f 	movl   $0x6f742065,0xc(%eax)
 80493f0:	c7 40 10 20 63 6f 6e 	movl   $0x6e6f6320,0x10(%eax)
 80493f7:	c7 40 14 6e 65 63 74 	movl   $0x7463656e,0x14(%eax)
 80493fe:	c7 40 18 20 74 6f 20 	movl   $0x206f7420,0x18(%eax)
 8049405:	c7 40 1c 74 68 65 20 	movl   $0x20656874,0x1c(%eax)
 804940c:	c7 40 20 73 65 72 76 	movl   $0x76726573,0x20(%eax)
 8049413:	66 c7 40 24 65 72    	movw   $0x7265,0x24(%eax)
 8049419:	c6 40 26 00          	movb   $0x0,0x26(%eax)
 804941d:	89 2c 24             	mov    %ebp,(%esp)
 8049420:	e8 bb f3 ff ff       	call   80487e0 <close@plt>
 8049425:	b8 ff ff ff ff       	mov    $0xffffffff,%eax
 804942a:	e9 f3 05 00 00       	jmp    8049a22 <submitr+0x7f1>
 804942f:	ba ff ff ff ff       	mov    $0xffffffff,%edx
 8049434:	89 df                	mov    %ebx,%edi
 8049436:	b8 00 00 00 00       	mov    $0x0,%eax
 804943b:	89 d1                	mov    %edx,%ecx
 804943d:	f2 ae                	repnz scas %es:(%edi),%al
 804943f:	f7 d1                	not    %ecx
 8049441:	89 ce                	mov    %ecx,%esi
 8049443:	8b bc 24 78 a0 00 00 	mov    0xa078(%esp),%edi
 804944a:	89 d1                	mov    %edx,%ecx
 804944c:	f2 ae                	repnz scas %es:(%edi),%al
 804944e:	89 4c 24 18          	mov    %ecx,0x18(%esp)
 8049452:	8b bc 24 7c a0 00 00 	mov    0xa07c(%esp),%edi
 8049459:	89 d1                	mov    %edx,%ecx
 804945b:	f2 ae                	repnz scas %es:(%edi),%al
 804945d:	f7 d1                	not    %ecx
 804945f:	89 4c 24 1c          	mov    %ecx,0x1c(%esp)
 8049463:	8b bc 24 80 a0 00 00 	mov    0xa080(%esp),%edi
 804946a:	89 d1                	mov    %edx,%ecx
 804946c:	f2 ae                	repnz scas %es:(%edi),%al
 804946e:	8b 44 24 1c          	mov    0x1c(%esp),%eax
 8049472:	2b 44 24 18          	sub    0x18(%esp),%eax
 8049476:	29 c8                	sub    %ecx,%eax
 8049478:	89 c2                	mov    %eax,%edx
 804947a:	8d 44 76 fd          	lea    -0x3(%esi,%esi,2),%eax
 804947e:	8d 44 02 7b          	lea    0x7b(%edx,%eax,1),%eax
 8049482:	3d 00 20 00 00       	cmp    $0x2000,%eax
 8049487:	76 7a                	jbe    8049503 <submitr+0x2d2>
 8049489:	8b 84 24 88 a0 00 00 	mov    0xa088(%esp),%eax
 8049490:	c7 00 45 72 72 6f    	movl   $0x6f727245,(%eax)
 8049496:	c7 40 04 72 3a 20 52 	movl   $0x52203a72,0x4(%eax)
 804949d:	c7 40 08 65 73 75 6c 	movl   $0x6c757365,0x8(%eax)
 80494a4:	c7 40 0c 74 20 73 74 	movl   $0x74732074,0xc(%eax)
 80494ab:	c7 40 10 72 69 6e 67 	movl   $0x676e6972,0x10(%eax)
 80494b2:	c7 40 14 20 74 6f 6f 	movl   $0x6f6f7420,0x14(%eax)
 80494b9:	c7 40 18 20 6c 61 72 	movl   $0x72616c20,0x18(%eax)
 80494c0:	c7 40 1c 67 65 2e 20 	movl   $0x202e6567,0x1c(%eax)
 80494c7:	c7 40 20 49 6e 63 72 	movl   $0x72636e49,0x20(%eax)
 80494ce:	c7 40 24 65 61 73 65 	movl   $0x65736165,0x24(%eax)
 80494d5:	c7 40 28 20 53 55 42 	movl   $0x42555320,0x28(%eax)
 80494dc:	c7 40 2c 4d 49 54 52 	movl   $0x5254494d,0x2c(%eax)
 80494e3:	c7 40 30 5f 4d 41 58 	movl   $0x58414d5f,0x30(%eax)
 80494ea:	c7 40 34 42 55 46 00 	movl   $0x465542,0x34(%eax)
 80494f1:	89 2c 24             	mov    %ebp,(%esp)
 80494f4:	e8 e7 f2 ff ff       	call   80487e0 <close@plt>
 80494f9:	b8 ff ff ff ff       	mov    $0xffffffff,%eax
 80494fe:	e9 1f 05 00 00       	jmp    8049a22 <submitr+0x7f1>
 8049503:	8d 94 24 34 40 00 00 	lea    0x4034(%esp),%edx
 804950a:	b9 00 08 00 00       	mov    $0x800,%ecx
 804950f:	b8 00 00 00 00       	mov    $0x0,%eax
 8049514:	89 d7                	mov    %edx,%edi
 8049516:	f3 ab                	rep stos %eax,%es:(%edi)
 8049518:	89 df                	mov    %ebx,%edi
 804951a:	b9 ff ff ff ff       	mov    $0xffffffff,%ecx
 804951f:	f2 ae                	repnz scas %es:(%edi),%al
 8049521:	f7 d1                	not    %ecx
 8049523:	83 e9 01             	sub    $0x1,%ecx
 8049526:	89 ce                	mov    %ecx,%esi
 8049528:	0f 84 0a 04 00 00    	je     8049938 <submitr+0x707>
 804952e:	89 d7                	mov    %edx,%edi
 8049530:	0f b6 03             	movzbl (%ebx),%eax
 8049533:	3c 2a                	cmp    $0x2a,%al
 8049535:	74 21                	je     8049558 <submitr+0x327>
 8049537:	8d 50 d3             	lea    -0x2d(%eax),%edx
 804953a:	80 fa 01             	cmp    $0x1,%dl
 804953d:	76 19                	jbe    8049558 <submitr+0x327>
 804953f:	3c 5f                	cmp    $0x5f,%al
 8049541:	74 15                	je     8049558 <submitr+0x327>
 8049543:	8d 50 d0             	lea    -0x30(%eax),%edx
 8049546:	80 fa 09             	cmp    $0x9,%dl
 8049549:	76 0d                	jbe    8049558 <submitr+0x327>
 804954b:	89 c2                	mov    %eax,%edx
 804954d:	83 e2 df             	and    $0xffffffdf,%edx
 8049550:	83 ea 41             	sub    $0x41,%edx
 8049553:	80 fa 19             	cmp    $0x19,%dl
 8049556:	77 07                	ja     804955f <submitr+0x32e>
 8049558:	8d 57 01             	lea    0x1(%edi),%edx
 804955b:	88 07                	mov    %al,(%edi)
 804955d:	eb 51                	jmp    80495b0 <submitr+0x37f>
 804955f:	3c 20                	cmp    $0x20,%al
 8049561:	75 08                	jne    804956b <submitr+0x33a>
 8049563:	8d 57 01             	lea    0x1(%edi),%edx
 8049566:	c6 07 2b             	movb   $0x2b,(%edi)
 8049569:	eb 45                	jmp    80495b0 <submitr+0x37f>
 804956b:	8d 50 e0             	lea    -0x20(%eax),%edx
 804956e:	80 fa 5f             	cmp    $0x5f,%dl
 8049571:	76 08                	jbe    804957b <submitr+0x34a>
 8049573:	3c 09                	cmp    $0x9,%al
 8049575:	0f 85 27 04 00 00    	jne    80499a2 <submitr+0x771>
 804957b:	0f b6 c0             	movzbl %al,%eax
 804957e:	89 44 24 08          	mov    %eax,0x8(%esp)
 8049582:	c7 44 24 04 7c a1 04 	movl   $0x804a17c,0x4(%esp)
 8049589:	08 
 804958a:	8d 44 24 28          	lea    0x28(%esp),%eax
 804958e:	89 04 24             	mov    %eax,(%esp)
 8049591:	e8 fa f1 ff ff       	call   8048790 <sprintf@plt>
 8049596:	0f b6 44 24 28       	movzbl 0x28(%esp),%eax
 804959b:	88 07                	mov    %al,(%edi)
 804959d:	0f b6 44 24 29       	movzbl 0x29(%esp),%eax
 80495a2:	88 47 01             	mov    %al,0x1(%edi)
 80495a5:	8d 57 03             	lea    0x3(%edi),%edx
 80495a8:	0f b6 44 24 2a       	movzbl 0x2a(%esp),%eax
 80495ad:	88 47 02             	mov    %al,0x2(%edi)
 80495b0:	83 c3 01             	add    $0x1,%ebx
 80495b3:	83 ee 01             	sub    $0x1,%esi
 80495b6:	0f 84 7c 03 00 00    	je     8049938 <submitr+0x707>
 80495bc:	89 d7                	mov    %edx,%edi
 80495be:	e9 6d ff ff ff       	jmp    8049530 <submitr+0x2ff>
 80495c3:	89 5c 24 08          	mov    %ebx,0x8(%esp)
 80495c7:	89 74 24 04          	mov    %esi,0x4(%esp)
 80495cb:	89 2c 24             	mov    %ebp,(%esp)
 80495ce:	e8 7d f1 ff ff       	call   8048750 <write@plt>
 80495d3:	85 c0                	test   %eax,%eax
 80495d5:	7f 10                	jg     80495e7 <submitr+0x3b6>
 80495d7:	e8 a4 f1 ff ff       	call   8048780 <__errno_location@plt>
 80495dc:	83 38 04             	cmpl   $0x4,(%eax)
 80495df:	90                   	nop
 80495e0:	75 0f                	jne    80495f1 <submitr+0x3c0>
 80495e2:	b8 00 00 00 00       	mov    $0x0,%eax
 80495e7:	01 c6                	add    %eax,%esi
 80495e9:	29 c3                	sub    %eax,%ebx
 80495eb:	75 d6                	jne    80495c3 <submitr+0x392>
 80495ed:	85 ff                	test   %edi,%edi
 80495ef:	79 65                	jns    8049656 <submitr+0x425>
 80495f1:	8b 84 24 88 a0 00 00 	mov    0xa088(%esp),%eax
 80495f8:	c7 00 45 72 72 6f    	movl   $0x6f727245,(%eax)
 80495fe:	c7 40 04 72 3a 20 43 	movl   $0x43203a72,0x4(%eax)
 8049605:	c7 40 08 6c 69 65 6e 	movl   $0x6e65696c,0x8(%eax)
 804960c:	c7 40 0c 74 20 75 6e 	movl   $0x6e752074,0xc(%eax)
 8049613:	c7 40 10 61 62 6c 65 	movl   $0x656c6261,0x10(%eax)
 804961a:	c7 40 14 20 74 6f 20 	movl   $0x206f7420,0x14(%eax)
 8049621:	c7 40 18 77 72 69 74 	movl   $0x74697277,0x18(%eax)
 8049628:	c7 40 1c 65 20 74 6f 	movl   $0x6f742065,0x1c(%eax)
 804962f:	c7 40 20 20 74 68 65 	movl   $0x65687420,0x20(%eax)
 8049636:	c7 40 24 20 73 65 72 	movl   $0x72657320,0x24(%eax)
 804963d:	c7 40 28 76 65 72 00 	movl   $0x726576,0x28(%eax)
 8049644:	89 2c 24             	mov    %ebp,(%esp)
 8049647:	e8 94 f1 ff ff       	call   80487e0 <close@plt>
 804964c:	b8 ff ff ff ff       	mov    $0xffffffff,%eax
 8049651:	e9 cc 03 00 00       	jmp    8049a22 <submitr+0x7f1>
 8049656:	89 ac 24 34 80 00 00 	mov    %ebp,0x8034(%esp)
 804965d:	c7 84 24 38 80 00 00 	movl   $0x0,0x8038(%esp)
 8049664:	00 00 00 00 
 8049668:	8d 84 24 40 80 00 00 	lea    0x8040(%esp),%eax
 804966f:	89 84 24 3c 80 00 00 	mov    %eax,0x803c(%esp)
 8049676:	b9 00 20 00 00       	mov    $0x2000,%ecx
 804967b:	8d 94 24 34 60 00 00 	lea    0x6034(%esp),%edx
 8049682:	8d 84 24 34 80 00 00 	lea    0x8034(%esp),%eax
 8049689:	e8 9e fa ff ff       	call   804912c <rio_readlineb>
 804968e:	85 c0                	test   %eax,%eax
 8049690:	7f 79                	jg     804970b <submitr+0x4da>
 8049692:	8b 84 24 88 a0 00 00 	mov    0xa088(%esp),%eax
 8049699:	c7 00 45 72 72 6f    	movl   $0x6f727245,(%eax)
 804969f:	c7 40 04 72 3a 20 43 	movl   $0x43203a72,0x4(%eax)
 80496a6:	c7 40 08 6c 69 65 6e 	movl   $0x6e65696c,0x8(%eax)
 80496ad:	c7 40 0c 74 20 75 6e 	movl   $0x6e752074,0xc(%eax)
 80496b4:	c7 40 10 61 62 6c 65 	movl   $0x656c6261,0x10(%eax)
 80496bb:	c7 40 14 20 74 6f 20 	movl   $0x206f7420,0x14(%eax)
 80496c2:	c7 40 18 72 65 61 64 	movl   $0x64616572,0x18(%eax)
 80496c9:	c7 40 1c 20 66 69 72 	movl   $0x72696620,0x1c(%eax)
 80496d0:	c7 40 20 73 74 20 68 	movl   $0x68207473,0x20(%eax)
 80496d7:	c7 40 24 65 61 64 65 	movl   $0x65646165,0x24(%eax)
 80496de:	c7 40 28 72 20 66 72 	movl   $0x72662072,0x28(%eax)
 80496e5:	c7 40 2c 6f 6d 20 73 	movl   $0x73206d6f,0x2c(%eax)
 80496ec:	c7 40 30 65 72 76 65 	movl   $0x65767265,0x30(%eax)
 80496f3:	66 c7 40 34 72 00    	movw   $0x72,0x34(%eax)
 80496f9:	89 2c 24             	mov    %ebp,(%esp)
 80496fc:	e8 df f0 ff ff       	call   80487e0 <close@plt>
 8049701:	b8 ff ff ff ff       	mov    $0xffffffff,%eax
 8049706:	e9 17 03 00 00       	jmp    8049a22 <submitr+0x7f1>
 804970b:	8d 44 24 30          	lea    0x30(%esp),%eax
 804970f:	89 44 24 10          	mov    %eax,0x10(%esp)
 8049713:	8d 84 24 30 20 00 00 	lea    0x2030(%esp),%eax
 804971a:	89 44 24 0c          	mov    %eax,0xc(%esp)
 804971e:	8d 84 24 34 20 00 00 	lea    0x2034(%esp),%eax
 8049725:	89 44 24 08          	mov    %eax,0x8(%esp)
 8049729:	c7 44 24 04 83 a1 04 	movl   $0x804a183,0x4(%esp)
 8049730:	08 
 8049731:	8d 84 24 34 60 00 00 	lea    0x6034(%esp),%eax
 8049738:	89 04 24             	mov    %eax,(%esp)
 804973b:	e8 20 f0 ff ff       	call   8048760 <__isoc99_sscanf@plt>
 8049740:	8b 84 24 30 20 00 00 	mov    0x2030(%esp),%eax
 8049747:	3d c8 00 00 00       	cmp    $0xc8,%eax
 804974c:	0f 84 c1 00 00 00    	je     8049813 <submitr+0x5e2>
 8049752:	8d 54 24 30          	lea    0x30(%esp),%edx
 8049756:	89 54 24 0c          	mov    %edx,0xc(%esp)
 804975a:	89 44 24 08          	mov    %eax,0x8(%esp)
 804975e:	c7 44 24 04 94 a0 04 	movl   $0x804a094,0x4(%esp)
 8049765:	08 
 8049766:	8b 84 24 88 a0 00 00 	mov    0xa088(%esp),%eax
 804976d:	89 04 24             	mov    %eax,(%esp)
 8049770:	e8 1b f0 ff ff       	call   8048790 <sprintf@plt>
 8049775:	89 2c 24             	mov    %ebp,(%esp)
 8049778:	e8 63 f0 ff ff       	call   80487e0 <close@plt>
 804977d:	b8 ff ff ff ff       	mov    $0xffffffff,%eax
 8049782:	e9 9b 02 00 00       	jmp    8049a22 <submitr+0x7f1>
 8049787:	b9 00 20 00 00       	mov    $0x2000,%ecx
 804978c:	8d 94 24 34 60 00 00 	lea    0x6034(%esp),%edx
 8049793:	8d 84 24 34 80 00 00 	lea    0x8034(%esp),%eax
 804979a:	e8 8d f9 ff ff       	call   804912c <rio_readlineb>
 804979f:	85 c0                	test   %eax,%eax
 80497a1:	7f 70                	jg     8049813 <submitr+0x5e2>
 80497a3:	8b 84 24 88 a0 00 00 	mov    0xa088(%esp),%eax
 80497aa:	c7 00 45 72 72 6f    	movl   $0x6f727245,(%eax)
 80497b0:	c7 40 04 72 3a 20 43 	movl   $0x43203a72,0x4(%eax)
 80497b7:	c7 40 08 6c 69 65 6e 	movl   $0x6e65696c,0x8(%eax)
 80497be:	c7 40 0c 74 20 75 6e 	movl   $0x6e752074,0xc(%eax)
 80497c5:	c7 40 10 61 62 6c 65 	movl   $0x656c6261,0x10(%eax)
 80497cc:	c7 40 14 20 74 6f 20 	movl   $0x206f7420,0x14(%eax)
 80497d3:	c7 40 18 72 65 61 64 	movl   $0x64616572,0x18(%eax)
 80497da:	c7 40 1c 20 68 65 61 	movl   $0x61656820,0x1c(%eax)
 80497e1:	c7 40 20 64 65 72 73 	movl   $0x73726564,0x20(%eax)
 80497e8:	c7 40 24 20 66 72 6f 	movl   $0x6f726620,0x24(%eax)
 80497ef:	c7 40 28 6d 20 73 65 	movl   $0x6573206d,0x28(%eax)
 80497f6:	c7 40 2c 72 76 65 72 	movl   $0x72657672,0x2c(%eax)
 80497fd:	c6 40 30 00          	movb   $0x0,0x30(%eax)
 8049801:	89 2c 24             	mov    %ebp,(%esp)
 8049804:	e8 d7 ef ff ff       	call   80487e0 <close@plt>
 8049809:	b8 ff ff ff ff       	mov    $0xffffffff,%eax
 804980e:	e9 0f 02 00 00       	jmp    8049a22 <submitr+0x7f1>
 8049813:	80 bc 24 34 60 00 00 	cmpb   $0xd,0x6034(%esp)
 804981a:	0d 
 804981b:	0f 85 66 ff ff ff    	jne    8049787 <submitr+0x556>
 8049821:	80 bc 24 35 60 00 00 	cmpb   $0xa,0x6035(%esp)
 8049828:	0a 
 8049829:	0f 85 58 ff ff ff    	jne    8049787 <submitr+0x556>
 804982f:	80 bc 24 36 60 00 00 	cmpb   $0x0,0x6036(%esp)
 8049836:	00 
 8049837:	0f 85 4a ff ff ff    	jne    8049787 <submitr+0x556>
 804983d:	b9 00 20 00 00       	mov    $0x2000,%ecx
 8049842:	8d 94 24 34 60 00 00 	lea    0x6034(%esp),%edx
 8049849:	8d 84 24 34 80 00 00 	lea    0x8034(%esp),%eax
 8049850:	e8 d7 f8 ff ff       	call   804912c <rio_readlineb>
 8049855:	85 c0                	test   %eax,%eax
 8049857:	7f 7a                	jg     80498d3 <submitr+0x6a2>
 8049859:	8b 84 24 88 a0 00 00 	mov    0xa088(%esp),%eax
 8049860:	c7 00 45 72 72 6f    	movl   $0x6f727245,(%eax)
 8049866:	c7 40 04 72 3a 20 43 	movl   $0x43203a72,0x4(%eax)
 804986d:	c7 40 08 6c 69 65 6e 	movl   $0x6e65696c,0x8(%eax)
 8049874:	c7 40 0c 74 20 75 6e 	movl   $0x6e752074,0xc(%eax)
 804987b:	c7 40 10 61 62 6c 65 	movl   $0x656c6261,0x10(%eax)
 8049882:	c7 40 14 20 74 6f 20 	movl   $0x206f7420,0x14(%eax)
 8049889:	c7 40 18 72 65 61 64 	movl   $0x64616572,0x18(%eax)
 8049890:	c7 40 1c 20 73 74 61 	movl   $0x61747320,0x1c(%eax)
 8049897:	c7 40 20 74 75 73 20 	movl   $0x20737574,0x20(%eax)
 804989e:	c7 40 24 6d 65 73 73 	movl   $0x7373656d,0x24(%eax)
 80498a5:	c7 40 28 61 67 65 20 	movl   $0x20656761,0x28(%eax)
 80498ac:	c7 40 2c 66 72 6f 6d 	movl   $0x6d6f7266,0x2c(%eax)
 80498b3:	c7 40 30 20 73 65 72 	movl   $0x72657320,0x30(%eax)
 80498ba:	c7 40 34 76 65 72 00 	movl   $0x726576,0x34(%eax)
 80498c1:	89 2c 24             	mov    %ebp,(%esp)
 80498c4:	e8 17 ef ff ff       	call   80487e0 <close@plt>
 80498c9:	b8 ff ff ff ff       	mov    $0xffffffff,%eax
 80498ce:	e9 4f 01 00 00       	jmp    8049a22 <submitr+0x7f1>
 80498d3:	8d 84 24 34 60 00 00 	lea    0x6034(%esp),%eax
 80498da:	89 44 24 04          	mov    %eax,0x4(%esp)
 80498de:	8b 84 24 88 a0 00 00 	mov    0xa088(%esp),%eax
 80498e5:	89 04 24             	mov    %eax,(%esp)
 80498e8:	e8 f3 ed ff ff       	call   80486e0 <strcpy@plt>
 80498ed:	89 2c 24             	mov    %ebp,(%esp)
 80498f0:	e8 eb ee ff ff       	call   80487e0 <close@plt>
 80498f5:	8b 84 24 88 a0 00 00 	mov    0xa088(%esp),%eax
 80498fc:	0f b6 00             	movzbl (%eax),%eax
 80498ff:	ba 4f 00 00 00       	mov    $0x4f,%edx
 8049904:	29 c2                	sub    %eax,%edx
 8049906:	75 21                	jne    8049929 <submitr+0x6f8>
 8049908:	8b 84 24 88 a0 00 00 	mov    0xa088(%esp),%eax
 804990f:	0f b6 40 01          	movzbl 0x1(%eax),%eax
 8049913:	ba 4b 00 00 00       	mov    $0x4b,%edx
 8049918:	29 c2                	sub    %eax,%edx
 804991a:	75 0d                	jne    8049929 <submitr+0x6f8>
 804991c:	8b 84 24 88 a0 00 00 	mov    0xa088(%esp),%eax
 8049923:	0f b6 50 02          	movzbl 0x2(%eax),%edx
 8049927:	f7 da                	neg    %edx
 8049929:	85 d2                	test   %edx,%edx
 804992b:	0f 95 c0             	setne  %al
 804992e:	0f b6 c0             	movzbl %al,%eax
 8049931:	f7 d8                	neg    %eax
 8049933:	e9 ea 00 00 00       	jmp    8049a22 <submitr+0x7f1>
 8049938:	8d 84 24 34 40 00 00 	lea    0x4034(%esp),%eax
 804993f:	89 44 24 14          	mov    %eax,0x14(%esp)
 8049943:	8b 84 24 80 a0 00 00 	mov    0xa080(%esp),%eax
 804994a:	89 44 24 10          	mov    %eax,0x10(%esp)
 804994e:	8b 84 24 7c a0 00 00 	mov    0xa07c(%esp),%eax
 8049955:	89 44 24 0c          	mov    %eax,0xc(%esp)
 8049959:	8b 84 24 78 a0 00 00 	mov    0xa078(%esp),%eax
 8049960:	89 44 24 08          	mov    %eax,0x8(%esp)
 8049964:	c7 44 24 04 c4 a0 04 	movl   $0x804a0c4,0x4(%esp)
 804996b:	08 
 804996c:	8d bc 24 34 60 00 00 	lea    0x6034(%esp),%edi
 8049973:	89 3c 24             	mov    %edi,(%esp)
 8049976:	e8 15 ee ff ff       	call   8048790 <sprintf@plt>
 804997b:	b8 00 00 00 00       	mov    $0x0,%eax
 8049980:	b9 ff ff ff ff       	mov    $0xffffffff,%ecx
 8049985:	f2 ae                	repnz scas %es:(%edi),%al
 8049987:	f7 d1                	not    %ecx
 8049989:	83 e9 01             	sub    $0x1,%ecx
 804998c:	89 cf                	mov    %ecx,%edi
 804998e:	0f 84 c2 fc ff ff    	je     8049656 <submitr+0x425>
 8049994:	89 cb                	mov    %ecx,%ebx
 8049996:	8d b4 24 34 60 00 00 	lea    0x6034(%esp),%esi
 804999d:	e9 21 fc ff ff       	jmp    80495c3 <submitr+0x392>
 80499a2:	8b bc 24 88 a0 00 00 	mov    0xa088(%esp),%edi
 80499a9:	be 10 a1 04 08       	mov    $0x804a110,%esi
 80499ae:	b8 43 00 00 00       	mov    $0x43,%eax
 80499b3:	f7 c7 01 00 00 00    	test   $0x1,%edi
 80499b9:	74 1d                	je     80499d8 <submitr+0x7a7>
 80499bb:	0f b6 05 10 a1 04 08 	movzbl 0x804a110,%eax
 80499c2:	88 07                	mov    %al,(%edi)
 80499c4:	8b 84 24 88 a0 00 00 	mov    0xa088(%esp),%eax
 80499cb:	8d 78 01             	lea    0x1(%eax),%edi
 80499ce:	be 11 a1 04 08       	mov    $0x804a111,%esi
 80499d3:	b8 42 00 00 00       	mov    $0x42,%eax
 80499d8:	f7 c7 02 00 00 00    	test   $0x2,%edi
 80499de:	74 0f                	je     80499ef <submitr+0x7be>
 80499e0:	0f b7 16             	movzwl (%esi),%edx
 80499e3:	66 89 17             	mov    %dx,(%edi)
 80499e6:	83 c7 02             	add    $0x2,%edi
 80499e9:	83 c6 02             	add    $0x2,%esi
 80499ec:	83 e8 02             	sub    $0x2,%eax
 80499ef:	89 c1                	mov    %eax,%ecx
 80499f1:	c1 e9 02             	shr    $0x2,%ecx
 80499f4:	f3 a5                	rep movsl %ds:(%esi),%es:(%edi)
 80499f6:	ba 00 00 00 00       	mov    $0x0,%edx
 80499fb:	a8 02                	test   $0x2,%al
 80499fd:	74 0b                	je     8049a0a <submitr+0x7d9>
 80499ff:	0f b7 16             	movzwl (%esi),%edx
 8049a02:	66 89 17             	mov    %dx,(%edi)
 8049a05:	ba 02 00 00 00       	mov    $0x2,%edx
 8049a0a:	a8 01                	test   $0x1,%al
 8049a0c:	74 07                	je     8049a15 <submitr+0x7e4>
 8049a0e:	0f b6 04 16          	movzbl (%esi,%edx,1),%eax
 8049a12:	88 04 17             	mov    %al,(%edi,%edx,1)
 8049a15:	89 2c 24             	mov    %ebp,(%esp)
 8049a18:	e8 c3 ed ff ff       	call   80487e0 <close@plt>
 8049a1d:	b8 ff ff ff ff       	mov    $0xffffffff,%eax
 8049a22:	81 c4 5c a0 00 00    	add    $0xa05c,%esp
 8049a28:	5b                   	pop    %ebx
 8049a29:	5e                   	pop    %esi
 8049a2a:	5f                   	pop    %edi
 8049a2b:	5d                   	pop    %ebp
 8049a2c:	c3                   	ret    

08049a2d <init_timeout>:
 8049a2d:	53                   	push   %ebx
 8049a2e:	83 ec 18             	sub    $0x18,%esp
 8049a31:	8b 5c 24 20          	mov    0x20(%esp),%ebx
 8049a35:	85 db                	test   %ebx,%ebx
 8049a37:	74 26                	je     8049a5f <init_timeout+0x32>
 8049a39:	c7 44 24 04 00 91 04 	movl   $0x8049100,0x4(%esp)
 8049a40:	08 
 8049a41:	c7 04 24 0e 00 00 00 	movl   $0xe,(%esp)
 8049a48:	e8 63 ec ff ff       	call   80486b0 <signal@plt>
 8049a4d:	85 db                	test   %ebx,%ebx
 8049a4f:	b8 00 00 00 00       	mov    $0x0,%eax
 8049a54:	0f 48 d8             	cmovs  %eax,%ebx
 8049a57:	89 1c 24             	mov    %ebx,(%esp)
 8049a5a:	e8 61 ec ff ff       	call   80486c0 <alarm@plt>
 8049a5f:	83 c4 18             	add    $0x18,%esp
 8049a62:	5b                   	pop    %ebx
 8049a63:	c3                   	ret    

08049a64 <init_driver>:
 8049a64:	57                   	push   %edi
 8049a65:	56                   	push   %esi
 8049a66:	53                   	push   %ebx
 8049a67:	83 ec 20             	sub    $0x20,%esp
 8049a6a:	8b 74 24 30          	mov    0x30(%esp),%esi
 8049a6e:	c7 44 24 04 01 00 00 	movl   $0x1,0x4(%esp)
 8049a75:	00 
 8049a76:	c7 04 24 0d 00 00 00 	movl   $0xd,(%esp)
 8049a7d:	e8 2e ec ff ff       	call   80486b0 <signal@plt>
 8049a82:	c7 44 24 04 01 00 00 	movl   $0x1,0x4(%esp)
 8049a89:	00 
 8049a8a:	c7 04 24 1d 00 00 00 	movl   $0x1d,(%esp)
 8049a91:	e8 1a ec ff ff       	call   80486b0 <signal@plt>
 8049a96:	c7 44 24 04 01 00 00 	movl   $0x1,0x4(%esp)
 8049a9d:	00 
 8049a9e:	c7 04 24 1d 00 00 00 	movl   $0x1d,(%esp)
 8049aa5:	e8 06 ec ff ff       	call   80486b0 <signal@plt>
 8049aaa:	c7 44 24 08 00 00 00 	movl   $0x0,0x8(%esp)
 8049ab1:	00 
 8049ab2:	c7 44 24 04 01 00 00 	movl   $0x1,0x4(%esp)
 8049ab9:	00 
 8049aba:	c7 04 24 02 00 00 00 	movl   $0x2,(%esp)
 8049ac1:	e8 da ec ff ff       	call   80487a0 <socket@plt>
 8049ac6:	89 c3                	mov    %eax,%ebx
 8049ac8:	85 c0                	test   %eax,%eax
 8049aca:	79 4e                	jns    8049b1a <init_driver+0xb6>
 8049acc:	c7 06 45 72 72 6f    	movl   $0x6f727245,(%esi)
 8049ad2:	c7 46 04 72 3a 20 43 	movl   $0x43203a72,0x4(%esi)
 8049ad9:	c7 46 08 6c 69 65 6e 	movl   $0x6e65696c,0x8(%esi)
 8049ae0:	c7 46 0c 74 20 75 6e 	movl   $0x6e752074,0xc(%esi)
 8049ae7:	c7 46 10 61 62 6c 65 	movl   $0x656c6261,0x10(%esi)
 8049aee:	c7 46 14 20 74 6f 20 	movl   $0x206f7420,0x14(%esi)
 8049af5:	c7 46 18 63 72 65 61 	movl   $0x61657263,0x18(%esi)
 8049afc:	c7 46 1c 74 65 20 73 	movl   $0x73206574,0x1c(%esi)
 8049b03:	c7 46 20 6f 63 6b 65 	movl   $0x656b636f,0x20(%esi)
 8049b0a:	66 c7 46 24 74 00    	movw   $0x74,0x24(%esi)
 8049b10:	b8 ff ff ff ff       	mov    $0xffffffff,%eax
 8049b15:	e9 1b 01 00 00       	jmp    8049c35 <init_driver+0x1d1>
 8049b1a:	c7 04 24 94 a1 04 08 	movl   $0x804a194,(%esp)
 8049b21:	e8 8a ec ff ff       	call   80487b0 <gethostbyname@plt>
 8049b26:	85 c0                	test   %eax,%eax
 8049b28:	75 68                	jne    8049b92 <init_driver+0x12e>
 8049b2a:	c7 06 45 72 72 6f    	movl   $0x6f727245,(%esi)
 8049b30:	c7 46 04 72 3a 20 44 	movl   $0x44203a72,0x4(%esi)
 8049b37:	c7 46 08 4e 53 20 69 	movl   $0x6920534e,0x8(%esi)
 8049b3e:	c7 46 0c 73 20 75 6e 	movl   $0x6e752073,0xc(%esi)
 8049b45:	c7 46 10 61 62 6c 65 	movl   $0x656c6261,0x10(%esi)
 8049b4c:	c7 46 14 20 74 6f 20 	movl   $0x206f7420,0x14(%esi)
 8049b53:	c7 46 18 72 65 73 6f 	movl   $0x6f736572,0x18(%esi)
 8049b5a:	c7 46 1c 6c 76 65 20 	movl   $0x2065766c,0x1c(%esi)
 8049b61:	c7 46 20 73 65 72 76 	movl   $0x76726573,0x20(%esi)
 8049b68:	c7 46 24 65 72 20 61 	movl   $0x61207265,0x24(%esi)
 8049b6f:	c7 46 28 64 64 72 65 	movl   $0x65726464,0x28(%esi)
 8049b76:	66 c7 46 2c 73 73    	movw   $0x7373,0x2c(%esi)
 8049b7c:	c6 46 2e 00          	movb   $0x0,0x2e(%esi)
 8049b80:	89 1c 24             	mov    %ebx,(%esp)
 8049b83:	e8 58 ec ff ff       	call   80487e0 <close@plt>
 8049b88:	b8 ff ff ff ff       	mov    $0xffffffff,%eax
 8049b8d:	e9 a3 00 00 00       	jmp    8049c35 <init_driver+0x1d1>
 8049b92:	8d 7c 24 10          	lea    0x10(%esp),%edi
 8049b96:	c7 44 24 10 00 00 00 	movl   $0x0,0x10(%esp)
 8049b9d:	00 
 8049b9e:	c7 44 24 14 00 00 00 	movl   $0x0,0x14(%esp)
 8049ba5:	00 
 8049ba6:	c7 44 24 18 00 00 00 	movl   $0x0,0x18(%esp)
 8049bad:	00 
 8049bae:	c7 44 24 1c 00 00 00 	movl   $0x0,0x1c(%esp)
 8049bb5:	00 
 8049bb6:	66 c7 44 24 10 02 00 	movw   $0x2,0x10(%esp)
 8049bbd:	8b 50 0c             	mov    0xc(%eax),%edx
 8049bc0:	89 54 24 08          	mov    %edx,0x8(%esp)
 8049bc4:	8d 54 24 14          	lea    0x14(%esp),%edx
 8049bc8:	89 54 24 04          	mov    %edx,0x4(%esp)
 8049bcc:	8b 40 10             	mov    0x10(%eax),%eax
 8049bcf:	8b 00                	mov    (%eax),%eax
 8049bd1:	89 04 24             	mov    %eax,(%esp)
 8049bd4:	e8 f7 ea ff ff       	call   80486d0 <bcopy@plt>
 8049bd9:	66 c7 44 24 12 3b 6e 	movw   $0x6e3b,0x12(%esp)
 8049be0:	c7 44 24 08 10 00 00 	movl   $0x10,0x8(%esp)
 8049be7:	00 
 8049be8:	89 7c 24 04          	mov    %edi,0x4(%esp)
 8049bec:	89 1c 24             	mov    %ebx,(%esp)
 8049bef:	e8 dc eb ff ff       	call   80487d0 <connect@plt>
 8049bf4:	85 c0                	test   %eax,%eax
 8049bf6:	79 27                	jns    8049c1f <init_driver+0x1bb>
 8049bf8:	c7 44 24 08 94 a1 04 	movl   $0x804a194,0x8(%esp)
 8049bff:	08 
 8049c00:	c7 44 24 04 54 a1 04 	movl   $0x804a154,0x4(%esp)
 8049c07:	08 
 8049c08:	89 34 24             	mov    %esi,(%esp)
 8049c0b:	e8 80 eb ff ff       	call   8048790 <sprintf@plt>
 8049c10:	89 1c 24             	mov    %ebx,(%esp)
 8049c13:	e8 c8 eb ff ff       	call   80487e0 <close@plt>
 8049c18:	b8 ff ff ff ff       	mov    $0xffffffff,%eax
 8049c1d:	eb 16                	jmp    8049c35 <init_driver+0x1d1>
 8049c1f:	89 1c 24             	mov    %ebx,(%esp)
 8049c22:	e8 b9 eb ff ff       	call   80487e0 <close@plt>
 8049c27:	66 c7 06 4f 4b       	movw   $0x4b4f,(%esi)
 8049c2c:	c6 46 02 00          	movb   $0x0,0x2(%esi)
 8049c30:	b8 00 00 00 00       	mov    $0x0,%eax
 8049c35:	83 c4 20             	add    $0x20,%esp
 8049c38:	5b                   	pop    %ebx
 8049c39:	5e                   	pop    %esi
 8049c3a:	5f                   	pop    %edi
 8049c3b:	c3                   	ret    

08049c3c <driver_post>:
 8049c3c:	53                   	push   %ebx
 8049c3d:	83 ec 28             	sub    $0x28,%esp
 8049c40:	8b 44 24 30          	mov    0x30(%esp),%eax
 8049c44:	8b 5c 24 3c          	mov    0x3c(%esp),%ebx
 8049c48:	83 7c 24 38 00       	cmpl   $0x0,0x38(%esp)
 8049c4d:	74 24                	je     8049c73 <driver_post+0x37>
 8049c4f:	8b 44 24 34          	mov    0x34(%esp),%eax
 8049c53:	89 44 24 04          	mov    %eax,0x4(%esp)
 8049c57:	c7 04 24 a1 a1 04 08 	movl   $0x804a1a1,(%esp)
 8049c5e:	e8 1d ea ff ff       	call   8048680 <printf@plt>
 8049c63:	66 c7 03 4f 4b       	movw   $0x4b4f,(%ebx)
 8049c68:	c6 43 02 00          	movb   $0x0,0x2(%ebx)
 8049c6c:	b8 00 00 00 00       	mov    $0x0,%eax
 8049c71:	eb 4d                	jmp    8049cc0 <driver_post+0x84>
 8049c73:	85 c0                	test   %eax,%eax
 8049c75:	74 3b                	je     8049cb2 <driver_post+0x76>
 8049c77:	80 38 00             	cmpb   $0x0,(%eax)
 8049c7a:	74 36                	je     8049cb2 <driver_post+0x76>
 8049c7c:	89 5c 24 18          	mov    %ebx,0x18(%esp)
 8049c80:	8b 54 24 34          	mov    0x34(%esp),%edx
 8049c84:	89 54 24 14          	mov    %edx,0x14(%esp)
 8049c88:	c7 44 24 10 b8 a1 04 	movl   $0x804a1b8,0x10(%esp)
 8049c8f:	08 
 8049c90:	89 44 24 0c          	mov    %eax,0xc(%esp)
 8049c94:	c7 44 24 08 c0 a1 04 	movl   $0x804a1c0,0x8(%esp)
 8049c9b:	08 
 8049c9c:	c7 44 24 04 6e 3b 00 	movl   $0x3b6e,0x4(%esp)
 8049ca3:	00 
 8049ca4:	c7 04 24 94 a1 04 08 	movl   $0x804a194,(%esp)
 8049cab:	e8 81 f5 ff ff       	call   8049231 <submitr>
 8049cb0:	eb 0e                	jmp    8049cc0 <driver_post+0x84>
 8049cb2:	66 c7 03 4f 4b       	movw   $0x4b4f,(%ebx)
 8049cb7:	c6 43 02 00          	movb   $0x0,0x2(%ebx)
 8049cbb:	b8 00 00 00 00       	mov    $0x0,%eax
 8049cc0:	83 c4 28             	add    $0x28,%esp
 8049cc3:	5b                   	pop    %ebx
 8049cc4:	c3                   	ret    
 8049cc5:	66 90                	xchg   %ax,%ax
 8049cc7:	66 90                	xchg   %ax,%ax
 8049cc9:	66 90                	xchg   %ax,%ax
 8049ccb:	66 90                	xchg   %ax,%ax
 8049ccd:	66 90                	xchg   %ax,%ax
 8049ccf:	90                   	nop

08049cd0 <__libc_csu_init>:
 8049cd0:	55                   	push   %ebp
 8049cd1:	57                   	push   %edi
 8049cd2:	31 ff                	xor    %edi,%edi
 8049cd4:	56                   	push   %esi
 8049cd5:	53                   	push   %ebx
 8049cd6:	e8 55 eb ff ff       	call   8048830 <__x86.get_pc_thunk.bx>
 8049cdb:	81 c3 25 23 00 00    	add    $0x2325,%ebx
 8049ce1:	83 ec 1c             	sub    $0x1c,%esp
 8049ce4:	8b 6c 24 30          	mov    0x30(%esp),%ebp
 8049ce8:	8d b3 0c ff ff ff    	lea    -0xf4(%ebx),%esi
 8049cee:	e8 41 e9 ff ff       	call   8048634 <_init>
 8049cf3:	8d 83 08 ff ff ff    	lea    -0xf8(%ebx),%eax
 8049cf9:	29 c6                	sub    %eax,%esi
 8049cfb:	c1 fe 02             	sar    $0x2,%esi
 8049cfe:	85 f6                	test   %esi,%esi
 8049d00:	74 27                	je     8049d29 <__libc_csu_init+0x59>
 8049d02:	8d b6 00 00 00 00    	lea    0x0(%esi),%esi
 8049d08:	8b 44 24 38          	mov    0x38(%esp),%eax
 8049d0c:	89 2c 24             	mov    %ebp,(%esp)
 8049d0f:	89 44 24 08          	mov    %eax,0x8(%esp)
 8049d13:	8b 44 24 34          	mov    0x34(%esp),%eax
 8049d17:	89 44 24 04          	mov    %eax,0x4(%esp)
 8049d1b:	ff 94 bb 08 ff ff ff 	call   *-0xf8(%ebx,%edi,4)
 8049d22:	83 c7 01             	add    $0x1,%edi
 8049d25:	39 f7                	cmp    %esi,%edi
 8049d27:	75 df                	jne    8049d08 <__libc_csu_init+0x38>
 8049d29:	83 c4 1c             	add    $0x1c,%esp
 8049d2c:	5b                   	pop    %ebx
 8049d2d:	5e                   	pop    %esi
 8049d2e:	5f                   	pop    %edi
 8049d2f:	5d                   	pop    %ebp
 8049d30:	c3                   	ret    
 8049d31:	eb 0d                	jmp    8049d40 <__libc_csu_fini>
 8049d33:	90                   	nop
 8049d34:	90                   	nop
 8049d35:	90                   	nop
 8049d36:	90                   	nop
 8049d37:	90                   	nop
 8049d38:	90                   	nop
 8049d39:	90                   	nop
 8049d3a:	90                   	nop
 8049d3b:	90                   	nop
 8049d3c:	90                   	nop
 8049d3d:	90                   	nop
 8049d3e:	90                   	nop
 8049d3f:	90                   	nop

08049d40 <__libc_csu_fini>:
 8049d40:	f3 c3                	repz ret 
 8049d42:	66 90                	xchg   %ax,%ax

Disassembly of section .fini:

08049d44 <_fini>:
 8049d44:	53                   	push   %ebx
 8049d45:	83 ec 08             	sub    $0x8,%esp
 8049d48:	e8 e3 ea ff ff       	call   8048830 <__x86.get_pc_thunk.bx>
 8049d4d:	81 c3 b3 22 00 00    	add    $0x22b3,%ebx
 8049d53:	83 c4 08             	add    $0x8,%esp
 8049d56:	5b                   	pop    %ebx
 8049d57:	c3                   	ret    
