
bufbomb:     file format elf32-i386


Disassembly of section .init:

080487c0 <_init>:
 80487c0:	53                   	push   %ebx
 80487c1:	83 ec 08             	sub    $0x8,%esp
 80487c4:	e8 c7 02 00 00       	call   8048a90 <__x86.get_pc_thunk.bx>
 80487c9:	81 c3 37 38 00 00    	add    $0x3837,%ebx
 80487cf:	8b 83 fc ff ff ff    	mov    -0x4(%ebx),%eax
 80487d5:	85 c0                	test   %eax,%eax
 80487d7:	74 05                	je     80487de <_init+0x1e>
 80487d9:	e8 22 01 00 00       	call   8048900 <__gmon_start__@plt>
 80487de:	83 c4 08             	add    $0x8,%esp
 80487e1:	5b                   	pop    %ebx
 80487e2:	c3                   	ret    

Disassembly of section .plt:

080487f0 <strcmp@plt-0x10>:
 80487f0:	ff 35 04 c0 04 08    	pushl  0x804c004
 80487f6:	ff 25 08 c0 04 08    	jmp    *0x804c008
 80487fc:	00 00                	add    %al,(%eax)
	...

08048800 <strcmp@plt>:
 8048800:	ff 25 0c c0 04 08    	jmp    *0x804c00c
 8048806:	68 00 00 00 00       	push   $0x0
 804880b:	e9 e0 ff ff ff       	jmp    80487f0 <_init+0x30>

08048810 <read@plt>:
 8048810:	ff 25 10 c0 04 08    	jmp    *0x804c010
 8048816:	68 08 00 00 00       	push   $0x8
 804881b:	e9 d0 ff ff ff       	jmp    80487f0 <_init+0x30>

08048820 <srandom@plt>:
 8048820:	ff 25 14 c0 04 08    	jmp    *0x804c014
 8048826:	68 10 00 00 00       	push   $0x10
 804882b:	e9 c0 ff ff ff       	jmp    80487f0 <_init+0x30>

08048830 <printf@plt>:
 8048830:	ff 25 18 c0 04 08    	jmp    *0x804c018
 8048836:	68 18 00 00 00       	push   $0x18
 804883b:	e9 b0 ff ff ff       	jmp    80487f0 <_init+0x30>

08048840 <strdup@plt>:
 8048840:	ff 25 1c c0 04 08    	jmp    *0x804c01c
 8048846:	68 20 00 00 00       	push   $0x20
 804884b:	e9 a0 ff ff ff       	jmp    80487f0 <_init+0x30>

08048850 <memcpy@plt>:
 8048850:	ff 25 20 c0 04 08    	jmp    *0x804c020
 8048856:	68 28 00 00 00       	push   $0x28
 804885b:	e9 90 ff ff ff       	jmp    80487f0 <_init+0x30>

08048860 <bzero@plt>:
 8048860:	ff 25 24 c0 04 08    	jmp    *0x804c024
 8048866:	68 30 00 00 00       	push   $0x30
 804886b:	e9 80 ff ff ff       	jmp    80487f0 <_init+0x30>

08048870 <signal@plt>:
 8048870:	ff 25 28 c0 04 08    	jmp    *0x804c028
 8048876:	68 38 00 00 00       	push   $0x38
 804887b:	e9 70 ff ff ff       	jmp    80487f0 <_init+0x30>

08048880 <alarm@plt>:
 8048880:	ff 25 2c c0 04 08    	jmp    *0x804c02c
 8048886:	68 40 00 00 00       	push   $0x40
 804888b:	e9 60 ff ff ff       	jmp    80487f0 <_init+0x30>

08048890 <_IO_getc@plt>:
 8048890:	ff 25 30 c0 04 08    	jmp    *0x804c030
 8048896:	68 48 00 00 00       	push   $0x48
 804889b:	e9 50 ff ff ff       	jmp    80487f0 <_init+0x30>

080488a0 <htons@plt>:
 80488a0:	ff 25 34 c0 04 08    	jmp    *0x804c034
 80488a6:	68 50 00 00 00       	push   $0x50
 80488ab:	e9 40 ff ff ff       	jmp    80487f0 <_init+0x30>

080488b0 <fwrite@plt>:
 80488b0:	ff 25 38 c0 04 08    	jmp    *0x804c038
 80488b6:	68 58 00 00 00       	push   $0x58
 80488bb:	e9 30 ff ff ff       	jmp    80487f0 <_init+0x30>

080488c0 <bcopy@plt>:
 80488c0:	ff 25 3c c0 04 08    	jmp    *0x804c03c
 80488c6:	68 60 00 00 00       	push   $0x60
 80488cb:	e9 20 ff ff ff       	jmp    80487f0 <_init+0x30>

080488d0 <strcpy@plt>:
 80488d0:	ff 25 40 c0 04 08    	jmp    *0x804c040
 80488d6:	68 68 00 00 00       	push   $0x68
 80488db:	e9 10 ff ff ff       	jmp    80487f0 <_init+0x30>

080488e0 <gethostname@plt>:
 80488e0:	ff 25 44 c0 04 08    	jmp    *0x804c044
 80488e6:	68 70 00 00 00       	push   $0x70
 80488eb:	e9 00 ff ff ff       	jmp    80487f0 <_init+0x30>

080488f0 <puts@plt>:
 80488f0:	ff 25 48 c0 04 08    	jmp    *0x804c048
 80488f6:	68 78 00 00 00       	push   $0x78
 80488fb:	e9 f0 fe ff ff       	jmp    80487f0 <_init+0x30>

08048900 <__gmon_start__@plt>:
 8048900:	ff 25 4c c0 04 08    	jmp    *0x804c04c
 8048906:	68 80 00 00 00       	push   $0x80
 804890b:	e9 e0 fe ff ff       	jmp    80487f0 <_init+0x30>

08048910 <exit@plt>:
 8048910:	ff 25 50 c0 04 08    	jmp    *0x804c050
 8048916:	68 88 00 00 00       	push   $0x88
 804891b:	e9 d0 fe ff ff       	jmp    80487f0 <_init+0x30>

08048920 <srand@plt>:
 8048920:	ff 25 54 c0 04 08    	jmp    *0x804c054
 8048926:	68 90 00 00 00       	push   $0x90
 804892b:	e9 c0 fe ff ff       	jmp    80487f0 <_init+0x30>

08048930 <mmap@plt>:
 8048930:	ff 25 58 c0 04 08    	jmp    *0x804c058
 8048936:	68 98 00 00 00       	push   $0x98
 804893b:	e9 b0 fe ff ff       	jmp    80487f0 <_init+0x30>

08048940 <strlen@plt>:
 8048940:	ff 25 5c c0 04 08    	jmp    *0x804c05c
 8048946:	68 a0 00 00 00       	push   $0xa0
 804894b:	e9 a0 fe ff ff       	jmp    80487f0 <_init+0x30>

08048950 <__libc_start_main@plt>:
 8048950:	ff 25 60 c0 04 08    	jmp    *0x804c060
 8048956:	68 a8 00 00 00       	push   $0xa8
 804895b:	e9 90 fe ff ff       	jmp    80487f0 <_init+0x30>

08048960 <fprintf@plt>:
 8048960:	ff 25 64 c0 04 08    	jmp    *0x804c064
 8048966:	68 b0 00 00 00       	push   $0xb0
 804896b:	e9 80 fe ff ff       	jmp    80487f0 <_init+0x30>

08048970 <write@plt>:
 8048970:	ff 25 68 c0 04 08    	jmp    *0x804c068
 8048976:	68 b8 00 00 00       	push   $0xb8
 804897b:	e9 70 fe ff ff       	jmp    80487f0 <_init+0x30>

08048980 <getopt@plt>:
 8048980:	ff 25 6c c0 04 08    	jmp    *0x804c06c
 8048986:	68 c0 00 00 00       	push   $0xc0
 804898b:	e9 60 fe ff ff       	jmp    80487f0 <_init+0x30>

08048990 <strcasecmp@plt>:
 8048990:	ff 25 70 c0 04 08    	jmp    *0x804c070
 8048996:	68 c8 00 00 00       	push   $0xc8
 804899b:	e9 50 fe ff ff       	jmp    80487f0 <_init+0x30>

080489a0 <__isoc99_sscanf@plt>:
 80489a0:	ff 25 74 c0 04 08    	jmp    *0x804c074
 80489a6:	68 d0 00 00 00       	push   $0xd0
 80489ab:	e9 40 fe ff ff       	jmp    80487f0 <_init+0x30>

080489b0 <memset@plt>:
 80489b0:	ff 25 78 c0 04 08    	jmp    *0x804c078
 80489b6:	68 d8 00 00 00       	push   $0xd8
 80489bb:	e9 30 fe ff ff       	jmp    80487f0 <_init+0x30>

080489c0 <__errno_location@plt>:
 80489c0:	ff 25 7c c0 04 08    	jmp    *0x804c07c
 80489c6:	68 e0 00 00 00       	push   $0xe0
 80489cb:	e9 20 fe ff ff       	jmp    80487f0 <_init+0x30>

080489d0 <rand@plt>:
 80489d0:	ff 25 80 c0 04 08    	jmp    *0x804c080
 80489d6:	68 e8 00 00 00       	push   $0xe8
 80489db:	e9 10 fe ff ff       	jmp    80487f0 <_init+0x30>

080489e0 <munmap@plt>:
 80489e0:	ff 25 84 c0 04 08    	jmp    *0x804c084
 80489e6:	68 f0 00 00 00       	push   $0xf0
 80489eb:	e9 00 fe ff ff       	jmp    80487f0 <_init+0x30>

080489f0 <sprintf@plt>:
 80489f0:	ff 25 88 c0 04 08    	jmp    *0x804c088
 80489f6:	68 f8 00 00 00       	push   $0xf8
 80489fb:	e9 f0 fd ff ff       	jmp    80487f0 <_init+0x30>

08048a00 <socket@plt>:
 8048a00:	ff 25 8c c0 04 08    	jmp    *0x804c08c
 8048a06:	68 00 01 00 00       	push   $0x100
 8048a0b:	e9 e0 fd ff ff       	jmp    80487f0 <_init+0x30>

08048a10 <random@plt>:
 8048a10:	ff 25 90 c0 04 08    	jmp    *0x804c090
 8048a16:	68 08 01 00 00       	push   $0x108
 8048a1b:	e9 d0 fd ff ff       	jmp    80487f0 <_init+0x30>

08048a20 <gethostbyname@plt>:
 8048a20:	ff 25 94 c0 04 08    	jmp    *0x804c094
 8048a26:	68 10 01 00 00       	push   $0x110
 8048a2b:	e9 c0 fd ff ff       	jmp    80487f0 <_init+0x30>

08048a30 <connect@plt>:
 8048a30:	ff 25 98 c0 04 08    	jmp    *0x804c098
 8048a36:	68 18 01 00 00       	push   $0x118
 8048a3b:	e9 b0 fd ff ff       	jmp    80487f0 <_init+0x30>

08048a40 <close@plt>:
 8048a40:	ff 25 9c c0 04 08    	jmp    *0x804c09c
 8048a46:	68 20 01 00 00       	push   $0x120
 8048a4b:	e9 a0 fd ff ff       	jmp    80487f0 <_init+0x30>

08048a50 <calloc@plt>:
 8048a50:	ff 25 a0 c0 04 08    	jmp    *0x804c0a0
 8048a56:	68 28 01 00 00       	push   $0x128
 8048a5b:	e9 90 fd ff ff       	jmp    80487f0 <_init+0x30>

Disassembly of section .text:

08048a60 <_start>:
 8048a60:	31 ed                	xor    %ebp,%ebp
 8048a62:	5e                   	pop    %esi
 8048a63:	89 e1                	mov    %esp,%ecx
 8048a65:	83 e4 f0             	and    $0xfffffff0,%esp
 8048a68:	50                   	push   %eax
 8048a69:	54                   	push   %esp
 8048a6a:	52                   	push   %edx
 8048a6b:	68 50 a3 04 08       	push   $0x804a350
 8048a70:	68 e0 a2 04 08       	push   $0x804a2e0
 8048a75:	51                   	push   %ecx
 8048a76:	56                   	push   %esi
 8048a77:	68 d1 90 04 08       	push   $0x80490d1
 8048a7c:	e8 cf fe ff ff       	call   8048950 <__libc_start_main@plt>
 8048a81:	f4                   	hlt    
 8048a82:	66 90                	xchg   %ax,%ax
 8048a84:	66 90                	xchg   %ax,%ax
 8048a86:	66 90                	xchg   %ax,%ax
 8048a88:	66 90                	xchg   %ax,%ax
 8048a8a:	66 90                	xchg   %ax,%ax
 8048a8c:	66 90                	xchg   %ax,%ax
 8048a8e:	66 90                	xchg   %ax,%ax

08048a90 <__x86.get_pc_thunk.bx>:
 8048a90:	8b 1c 24             	mov    (%esp),%ebx
 8048a93:	c3                   	ret    
 8048a94:	66 90                	xchg   %ax,%ax
 8048a96:	66 90                	xchg   %ax,%ax
 8048a98:	66 90                	xchg   %ax,%ax
 8048a9a:	66 90                	xchg   %ax,%ax
 8048a9c:	66 90                	xchg   %ax,%ax
 8048a9e:	66 90                	xchg   %ax,%ax

08048aa0 <deregister_tm_clones>:
 8048aa0:	b8 fb d0 04 08       	mov    $0x804d0fb,%eax
 8048aa5:	2d f8 d0 04 08       	sub    $0x804d0f8,%eax
 8048aaa:	83 f8 06             	cmp    $0x6,%eax
 8048aad:	77 01                	ja     8048ab0 <deregister_tm_clones+0x10>
 8048aaf:	c3                   	ret    
 8048ab0:	b8 00 00 00 00       	mov    $0x0,%eax
 8048ab5:	85 c0                	test   %eax,%eax
 8048ab7:	74 f6                	je     8048aaf <deregister_tm_clones+0xf>
 8048ab9:	55                   	push   %ebp
 8048aba:	89 e5                	mov    %esp,%ebp
 8048abc:	83 ec 18             	sub    $0x18,%esp
 8048abf:	c7 04 24 f8 d0 04 08 	movl   $0x804d0f8,(%esp)
 8048ac6:	ff d0                	call   *%eax
 8048ac8:	c9                   	leave  
 8048ac9:	c3                   	ret    
 8048aca:	8d b6 00 00 00 00    	lea    0x0(%esi),%esi

08048ad0 <register_tm_clones>:
 8048ad0:	b8 f8 d0 04 08       	mov    $0x804d0f8,%eax
 8048ad5:	2d f8 d0 04 08       	sub    $0x804d0f8,%eax
 8048ada:	c1 f8 02             	sar    $0x2,%eax
 8048add:	89 c2                	mov    %eax,%edx
 8048adf:	c1 ea 1f             	shr    $0x1f,%edx
 8048ae2:	01 d0                	add    %edx,%eax
 8048ae4:	d1 f8                	sar    %eax
 8048ae6:	75 01                	jne    8048ae9 <register_tm_clones+0x19>
 8048ae8:	c3                   	ret    
 8048ae9:	ba 00 00 00 00       	mov    $0x0,%edx
 8048aee:	85 d2                	test   %edx,%edx
 8048af0:	74 f6                	je     8048ae8 <register_tm_clones+0x18>
 8048af2:	55                   	push   %ebp
 8048af3:	89 e5                	mov    %esp,%ebp
 8048af5:	83 ec 18             	sub    $0x18,%esp
 8048af8:	89 44 24 04          	mov    %eax,0x4(%esp)
 8048afc:	c7 04 24 f8 d0 04 08 	movl   $0x804d0f8,(%esp)
 8048b03:	ff d2                	call   *%edx
 8048b05:	c9                   	leave  
 8048b06:	c3                   	ret    
 8048b07:	89 f6                	mov    %esi,%esi
 8048b09:	8d bc 27 00 00 00 00 	lea    0x0(%edi,%eiz,1),%edi

08048b10 <__do_global_dtors_aux>:
 8048b10:	80 3d 0c d1 04 08 00 	cmpb   $0x0,0x804d10c
 8048b17:	75 13                	jne    8048b2c <__do_global_dtors_aux+0x1c>
 8048b19:	55                   	push   %ebp
 8048b1a:	89 e5                	mov    %esp,%ebp
 8048b1c:	83 ec 08             	sub    $0x8,%esp
 8048b1f:	e8 7c ff ff ff       	call   8048aa0 <deregister_tm_clones>
 8048b24:	c6 05 0c d1 04 08 01 	movb   $0x1,0x804d10c
 8048b2b:	c9                   	leave  
 8048b2c:	f3 c3                	repz ret 
 8048b2e:	66 90                	xchg   %ax,%ax

08048b30 <frame_dummy>:
 8048b30:	a1 10 bf 04 08       	mov    0x804bf10,%eax
 8048b35:	85 c0                	test   %eax,%eax
 8048b37:	74 1f                	je     8048b58 <frame_dummy+0x28>
 8048b39:	b8 00 00 00 00       	mov    $0x0,%eax
 8048b3e:	85 c0                	test   %eax,%eax
 8048b40:	74 16                	je     8048b58 <frame_dummy+0x28>
 8048b42:	55                   	push   %ebp
 8048b43:	89 e5                	mov    %esp,%ebp
 8048b45:	83 ec 18             	sub    $0x18,%esp
 8048b48:	c7 04 24 10 bf 04 08 	movl   $0x804bf10,(%esp)
 8048b4f:	ff d0                	call   *%eax
 8048b51:	c9                   	leave  
 8048b52:	e9 79 ff ff ff       	jmp    8048ad0 <register_tm_clones>
 8048b57:	90                   	nop
 8048b58:	e9 73 ff ff ff       	jmp    8048ad0 <register_tm_clones>
 8048b5d:	66 90                	xchg   %ax,%ax
 8048b5f:	90                   	nop

08048b60 <smoke>:
 8048b60:	55                   	push   %ebp
 8048b61:	89 e5                	mov    %esp,%ebp
 8048b63:	83 ec 18             	sub    $0x18,%esp
 8048b66:	c7 04 24 74 a3 04 08 	movl   $0x804a374,(%esp)
 8048b6d:	e8 7e fd ff ff       	call   80488f0 <puts@plt>
 8048b72:	c7 04 24 00 00 00 00 	movl   $0x0,(%esp)
 8048b79:	e8 e9 08 00 00       	call   8049467 <validate>
 8048b7e:	c7 04 24 00 00 00 00 	movl   $0x0,(%esp)
 8048b85:	e8 86 fd ff ff       	call   8048910 <exit@plt>

08048b8a <fizz>:
 8048b8a:	55                   	push   %ebp
 8048b8b:	89 e5                	mov    %esp,%ebp
 8048b8d:	83 ec 18             	sub    $0x18,%esp
 8048b90:	8b 55 08             	mov    0x8(%ebp),%edx
 8048b93:	a1 1c d1 04 08       	mov    0x804d11c,%eax
 8048b98:	39 c2                	cmp    %eax,%edx
 8048b9a:	75 21                	jne    8048bbd <fizz+0x33>
 8048b9c:	8b 45 08             	mov    0x8(%ebp),%eax
 8048b9f:	89 44 24 04          	mov    %eax,0x4(%esp)
 8048ba3:	c7 04 24 8f a3 04 08 	movl   $0x804a38f,(%esp)
 8048baa:	e8 81 fc ff ff       	call   8048830 <printf@plt>
 8048baf:	c7 04 24 01 00 00 00 	movl   $0x1,(%esp)
 8048bb6:	e8 ac 08 00 00       	call   8049467 <validate>
 8048bbb:	eb 13                	jmp    8048bd0 <fizz+0x46>
 8048bbd:	8b 45 08             	mov    0x8(%ebp),%eax
 8048bc0:	89 44 24 04          	mov    %eax,0x4(%esp)
 8048bc4:	c7 04 24 b0 a3 04 08 	movl   $0x804a3b0,(%esp)
 8048bcb:	e8 60 fc ff ff       	call   8048830 <printf@plt>
 8048bd0:	c7 04 24 00 00 00 00 	movl   $0x0,(%esp)
 8048bd7:	e8 34 fd ff ff       	call   8048910 <exit@plt>

08048bdc <bang>:
 8048bdc:	55                   	push   %ebp
 8048bdd:	89 e5                	mov    %esp,%ebp
 8048bdf:	83 ec 18             	sub    $0x18,%esp
 8048be2:	a1 24 d1 04 08       	mov    0x804d124,%eax
 8048be7:	89 c2                	mov    %eax,%edx
 8048be9:	a1 1c d1 04 08       	mov    0x804d11c,%eax
 8048bee:	39 c2                	cmp    %eax,%edx
 8048bf0:	75 23                	jne    8048c15 <bang+0x39>
 8048bf2:	a1 24 d1 04 08       	mov    0x804d124,%eax
 8048bf7:	89 44 24 04          	mov    %eax,0x4(%esp)
 8048bfb:	c7 04 24 d0 a3 04 08 	movl   $0x804a3d0,(%esp)
 8048c02:	e8 29 fc ff ff       	call   8048830 <printf@plt>
 8048c07:	c7 04 24 02 00 00 00 	movl   $0x2,(%esp)
 8048c0e:	e8 54 08 00 00       	call   8049467 <validate>
 8048c13:	eb 15                	jmp    8048c2a <bang+0x4e>
 8048c15:	a1 24 d1 04 08       	mov    0x804d124,%eax
 8048c1a:	89 44 24 04          	mov    %eax,0x4(%esp)
 8048c1e:	c7 04 24 f5 a3 04 08 	movl   $0x804a3f5,(%esp)
 8048c25:	e8 06 fc ff ff       	call   8048830 <printf@plt>
 8048c2a:	c7 04 24 00 00 00 00 	movl   $0x0,(%esp)
 8048c31:	e8 da fc ff ff       	call   8048910 <exit@plt>

08048c36 <test>:
 8048c36:	55                   	push   %ebp
 8048c37:	89 e5                	mov    %esp,%ebp
 8048c39:	83 ec 28             	sub    $0x28,%esp
 8048c3c:	c7 45 f0 ef be ad de 	movl   $0xdeadbeef,-0x10(%ebp)
 8048c43:	e8 5d 00 00 00       	call   8048ca5 <getbuf>
 8048c48:	89 45 f4             	mov    %eax,-0xc(%ebp)
 8048c4b:	8b 45 f0             	mov    -0x10(%ebp),%eax
 8048c4e:	3d ef be ad de       	cmp    $0xdeadbeef,%eax
 8048c53:	74 0e                	je     8048c63 <test+0x2d>
 8048c55:	c7 04 24 14 a4 04 08 	movl   $0x804a414,(%esp)
 8048c5c:	e8 8f fc ff ff       	call   80488f0 <puts@plt>
 8048c61:	eb 40                	jmp    8048ca3 <test+0x6d>
 8048c63:	8b 55 f4             	mov    -0xc(%ebp),%edx
 8048c66:	a1 1c d1 04 08       	mov    0x804d11c,%eax
 8048c6b:	39 c2                	cmp    %eax,%edx
 8048c6d:	75 21                	jne    8048c90 <test+0x5a>
 8048c6f:	8b 45 f4             	mov    -0xc(%ebp),%eax
 8048c72:	89 44 24 04          	mov    %eax,0x4(%esp)
 8048c76:	c7 04 24 3d a4 04 08 	movl   $0x804a43d,(%esp)
 8048c7d:	e8 ae fb ff ff       	call   8048830 <printf@plt>
 8048c82:	c7 04 24 03 00 00 00 	movl   $0x3,(%esp)
 8048c89:	e8 d9 07 00 00       	call   8049467 <validate>
 8048c8e:	eb 13                	jmp    8048ca3 <test+0x6d>
 8048c90:	8b 45 f4             	mov    -0xc(%ebp),%eax
 8048c93:	89 44 24 04          	mov    %eax,0x4(%esp)
 8048c97:	c7 04 24 5a a4 04 08 	movl   $0x804a45a,(%esp)
 8048c9e:	e8 8d fb ff ff       	call   8048830 <printf@plt>
 8048ca3:	c9                   	leave  
 8048ca4:	c3                   	ret    

08048ca5 <getbuf>:
 8048ca5:	55                   	push   %ebp
 8048ca6:	89 e5                	mov    %esp,%ebp
 8048ca8:	83 ec 48             	sub    $0x48,%esp
 8048cab:	c7 45 ec 57 72 69 74 	movl   $0x74697257,-0x14(%ebp)
 8048cb2:	c7 45 f0 65 20 68 65 	movl   $0x65682065,-0x10(%ebp)
 8048cb9:	c7 45 f4 72 65 00 00 	movl   $0x6572,-0xc(%ebp)
 8048cc0:	8d 45 cc             	lea    -0x34(%ebp),%eax
 8048cc3:	89 04 24             	mov    %eax,(%esp)
 8048cc6:	e8 4e 01 00 00       	call   8048e19 <Gets>
 8048ccb:	b8 01 00 00 00       	mov    $0x1,%eax
 8048cd0:	c9                   	leave  
 8048cd1:	c3                   	ret    

08048cd2 <getbufn>:
 8048cd2:	55                   	push   %ebp
 8048cd3:	89 e5                	mov    %esp,%ebp
 8048cd5:	81 ec 28 02 00 00    	sub    $0x228,%esp
 8048cdb:	c7 45 e8 57 72 69 74 	movl   $0x74697257,-0x18(%ebp)
 8048ce2:	c7 45 ec 65 20 6c 69 	movl   $0x696c2065,-0x14(%ebp)
 8048ce9:	c7 45 f0 6e 65 20 68 	movl   $0x6820656e,-0x10(%ebp)
 8048cf0:	c7 45 f4 65 72 65 00 	movl   $0x657265,-0xc(%ebp)
 8048cf7:	8d 85 e8 fd ff ff    	lea    -0x218(%ebp),%eax
 8048cfd:	89 04 24             	mov    %eax,(%esp)
 8048d00:	e8 14 01 00 00       	call   8048e19 <Gets>
 8048d05:	b8 01 00 00 00       	mov    $0x1,%eax
 8048d0a:	c9                   	leave  
 8048d0b:	c3                   	ret    

08048d0c <testn>:
 8048d0c:	55                   	push   %ebp
 8048d0d:	89 e5                	mov    %esp,%ebp
 8048d0f:	83 ec 38             	sub    $0x38,%esp
 8048d12:	c7 45 dc ef be ad de 	movl   $0xdeadbeef,-0x24(%ebp)
 8048d19:	e8 b4 ff ff ff       	call   8048cd2 <getbufn>
 8048d1e:	89 45 f4             	mov    %eax,-0xc(%ebp)
 8048d21:	8b 45 dc             	mov    -0x24(%ebp),%eax
 8048d24:	3d ef be ad de       	cmp    $0xdeadbeef,%eax
 8048d29:	74 0e                	je     8048d39 <testn+0x2d>
 8048d2b:	c7 04 24 14 a4 04 08 	movl   $0x804a414,(%esp)
 8048d32:	e8 b9 fb ff ff       	call   80488f0 <puts@plt>
 8048d37:	eb 40                	jmp    8048d79 <testn+0x6d>
 8048d39:	8b 55 f4             	mov    -0xc(%ebp),%edx
 8048d3c:	a1 1c d1 04 08       	mov    0x804d11c,%eax
 8048d41:	39 c2                	cmp    %eax,%edx
 8048d43:	75 21                	jne    8048d66 <testn+0x5a>
 8048d45:	8b 45 f4             	mov    -0xc(%ebp),%eax
 8048d48:	89 44 24 04          	mov    %eax,0x4(%esp)
 8048d4c:	c7 04 24 78 a4 04 08 	movl   $0x804a478,(%esp)
 8048d53:	e8 d8 fa ff ff       	call   8048830 <printf@plt>
 8048d58:	c7 04 24 04 00 00 00 	movl   $0x4,(%esp)
 8048d5f:	e8 03 07 00 00       	call   8049467 <validate>
 8048d64:	eb 13                	jmp    8048d79 <testn+0x6d>
 8048d66:	8b 45 f4             	mov    -0xc(%ebp),%eax
 8048d69:	89 44 24 04          	mov    %eax,0x4(%esp)
 8048d6d:	c7 04 24 98 a4 04 08 	movl   $0x804a498,(%esp)
 8048d74:	e8 b7 fa ff ff       	call   8048830 <printf@plt>
 8048d79:	c9                   	leave  
 8048d7a:	c3                   	ret    

08048d7b <save_char>:
 8048d7b:	55                   	push   %ebp
 8048d7c:	89 e5                	mov    %esp,%ebp
 8048d7e:	83 ec 04             	sub    $0x4,%esp
 8048d81:	8b 45 08             	mov    0x8(%ebp),%eax
 8048d84:	88 45 fc             	mov    %al,-0x4(%ebp)
 8048d87:	a1 28 d1 04 08       	mov    0x804d128,%eax
 8048d8c:	3d ff 03 00 00       	cmp    $0x3ff,%eax
 8048d91:	7f 6c                	jg     8048dff <save_char+0x84>
 8048d93:	8b 15 28 d1 04 08    	mov    0x804d128,%edx
 8048d99:	89 d0                	mov    %edx,%eax
 8048d9b:	01 c0                	add    %eax,%eax
 8048d9d:	01 c2                	add    %eax,%edx
 8048d9f:	0f b6 45 fc          	movzbl -0x4(%ebp),%eax
 8048da3:	c0 f8 04             	sar    $0x4,%al
 8048da6:	0f be c0             	movsbl %al,%eax
 8048da9:	83 e0 0f             	and    $0xf,%eax
 8048dac:	0f b6 80 c4 c0 04 08 	movzbl 0x804c0c4(%eax),%eax
 8048db3:	88 82 60 d1 04 08    	mov    %al,0x804d160(%edx)
 8048db9:	8b 15 28 d1 04 08    	mov    0x804d128,%edx
 8048dbf:	89 d0                	mov    %edx,%eax
 8048dc1:	01 c0                	add    %eax,%eax
 8048dc3:	01 d0                	add    %edx,%eax
 8048dc5:	8d 50 01             	lea    0x1(%eax),%edx
 8048dc8:	0f be 45 fc          	movsbl -0x4(%ebp),%eax
 8048dcc:	83 e0 0f             	and    $0xf,%eax
 8048dcf:	0f b6 80 c4 c0 04 08 	movzbl 0x804c0c4(%eax),%eax
 8048dd6:	88 82 60 d1 04 08    	mov    %al,0x804d160(%edx)
 8048ddc:	8b 15 28 d1 04 08    	mov    0x804d128,%edx
 8048de2:	89 d0                	mov    %edx,%eax
 8048de4:	01 c0                	add    %eax,%eax
 8048de6:	01 d0                	add    %edx,%eax
 8048de8:	83 c0 02             	add    $0x2,%eax
 8048deb:	c6 80 60 d1 04 08 20 	movb   $0x20,0x804d160(%eax)
 8048df2:	a1 28 d1 04 08       	mov    0x804d128,%eax
 8048df7:	83 c0 01             	add    $0x1,%eax
 8048dfa:	a3 28 d1 04 08       	mov    %eax,0x804d128
 8048dff:	c9                   	leave  
 8048e00:	c3                   	ret    

08048e01 <save_term>:
 8048e01:	55                   	push   %ebp
 8048e02:	89 e5                	mov    %esp,%ebp
 8048e04:	8b 15 28 d1 04 08    	mov    0x804d128,%edx
 8048e0a:	89 d0                	mov    %edx,%eax
 8048e0c:	01 c0                	add    %eax,%eax
 8048e0e:	01 d0                	add    %edx,%eax
 8048e10:	c6 80 60 d1 04 08 00 	movb   $0x0,0x804d160(%eax)
 8048e17:	5d                   	pop    %ebp
 8048e18:	c3                   	ret    

08048e19 <Gets>:
 8048e19:	55                   	push   %ebp
 8048e1a:	89 e5                	mov    %esp,%ebp
 8048e1c:	83 ec 28             	sub    $0x28,%esp
 8048e1f:	8b 45 08             	mov    0x8(%ebp),%eax
 8048e22:	89 45 f4             	mov    %eax,-0xc(%ebp)
 8048e25:	c7 05 28 d1 04 08 00 	movl   $0x0,0x804d128
 8048e2c:	00 00 00 
 8048e2f:	eb 1c                	jmp    8048e4d <Gets+0x34>
 8048e31:	8b 45 f4             	mov    -0xc(%ebp),%eax
 8048e34:	8d 50 01             	lea    0x1(%eax),%edx
 8048e37:	89 55 f4             	mov    %edx,-0xc(%ebp)
 8048e3a:	8b 55 f0             	mov    -0x10(%ebp),%edx
 8048e3d:	88 10                	mov    %dl,(%eax)
 8048e3f:	8b 45 f0             	mov    -0x10(%ebp),%eax
 8048e42:	0f be c0             	movsbl %al,%eax
 8048e45:	89 04 24             	mov    %eax,(%esp)
 8048e48:	e8 2e ff ff ff       	call   8048d7b <save_char>
 8048e4d:	a1 18 d1 04 08       	mov    0x804d118,%eax
 8048e52:	89 04 24             	mov    %eax,(%esp)
 8048e55:	e8 36 fa ff ff       	call   8048890 <_IO_getc@plt>
 8048e5a:	89 45 f0             	mov    %eax,-0x10(%ebp)
 8048e5d:	83 7d f0 ff          	cmpl   $0xffffffff,-0x10(%ebp)
 8048e61:	74 06                	je     8048e69 <Gets+0x50>
 8048e63:	83 7d f0 0a          	cmpl   $0xa,-0x10(%ebp)
 8048e67:	75 c8                	jne    8048e31 <Gets+0x18>
 8048e69:	8b 45 f4             	mov    -0xc(%ebp),%eax
 8048e6c:	8d 50 01             	lea    0x1(%eax),%edx
 8048e6f:	89 55 f4             	mov    %edx,-0xc(%ebp)
 8048e72:	c6 00 00             	movb   $0x0,(%eax)
 8048e75:	e8 87 ff ff ff       	call   8048e01 <save_term>
 8048e7a:	8b 45 08             	mov    0x8(%ebp),%eax
 8048e7d:	c9                   	leave  
 8048e7e:	c3                   	ret    

08048e7f <usage>:
 8048e7f:	55                   	push   %ebp
 8048e80:	89 e5                	mov    %esp,%ebp
 8048e82:	83 ec 18             	sub    $0x18,%esp
 8048e85:	8b 45 08             	mov    0x8(%ebp),%eax
 8048e88:	89 44 24 04          	mov    %eax,0x4(%esp)
 8048e8c:	c7 04 24 b4 a4 04 08 	movl   $0x804a4b4,(%esp)
 8048e93:	e8 98 f9 ff ff       	call   8048830 <printf@plt>
 8048e98:	c7 04 24 d2 a4 04 08 	movl   $0x804a4d2,(%esp)
 8048e9f:	e8 4c fa ff ff       	call   80488f0 <puts@plt>
 8048ea4:	c7 04 24 e8 a4 04 08 	movl   $0x804a4e8,(%esp)
 8048eab:	e8 40 fa ff ff       	call   80488f0 <puts@plt>
 8048eb0:	c7 04 24 04 a5 04 08 	movl   $0x804a504,(%esp)
 8048eb7:	e8 34 fa ff ff       	call   80488f0 <puts@plt>
 8048ebc:	c7 04 24 40 a5 04 08 	movl   $0x804a540,(%esp)
 8048ec3:	e8 28 fa ff ff       	call   80488f0 <puts@plt>
 8048ec8:	c7 04 24 00 00 00 00 	movl   $0x0,(%esp)
 8048ecf:	e8 3c fa ff ff       	call   8048910 <exit@plt>

08048ed4 <bushandler>:
 8048ed4:	55                   	push   %ebp
 8048ed5:	89 e5                	mov    %esp,%ebp
 8048ed7:	83 ec 18             	sub    $0x18,%esp
 8048eda:	c7 04 24 68 a5 04 08 	movl   $0x804a568,(%esp)
 8048ee1:	e8 0a fa ff ff       	call   80488f0 <puts@plt>
 8048ee6:	c7 04 24 88 a5 04 08 	movl   $0x804a588,(%esp)
 8048eed:	e8 fe f9 ff ff       	call   80488f0 <puts@plt>
 8048ef2:	c7 04 24 00 00 00 00 	movl   $0x0,(%esp)
 8048ef9:	e8 12 fa ff ff       	call   8048910 <exit@plt>

08048efe <seghandler>:
 8048efe:	55                   	push   %ebp
 8048eff:	89 e5                	mov    %esp,%ebp
 8048f01:	83 ec 18             	sub    $0x18,%esp
 8048f04:	c7 04 24 a0 a5 04 08 	movl   $0x804a5a0,(%esp)
 8048f0b:	e8 e0 f9 ff ff       	call   80488f0 <puts@plt>
 8048f10:	c7 04 24 88 a5 04 08 	movl   $0x804a588,(%esp)
 8048f17:	e8 d4 f9 ff ff       	call   80488f0 <puts@plt>
 8048f1c:	c7 04 24 00 00 00 00 	movl   $0x0,(%esp)
 8048f23:	e8 e8 f9 ff ff       	call   8048910 <exit@plt>

08048f28 <illegalhandler>:
 8048f28:	55                   	push   %ebp
 8048f29:	89 e5                	mov    %esp,%ebp
 8048f2b:	83 ec 18             	sub    $0x18,%esp
 8048f2e:	c7 04 24 c8 a5 04 08 	movl   $0x804a5c8,(%esp)
 8048f35:	e8 b6 f9 ff ff       	call   80488f0 <puts@plt>
 8048f3a:	c7 04 24 88 a5 04 08 	movl   $0x804a588,(%esp)
 8048f41:	e8 aa f9 ff ff       	call   80488f0 <puts@plt>
 8048f46:	c7 04 24 00 00 00 00 	movl   $0x0,(%esp)
 8048f4d:	e8 be f9 ff ff       	call   8048910 <exit@plt>

08048f52 <launch>:
 8048f52:	55                   	push   %ebp
 8048f53:	89 e5                	mov    %esp,%ebp
 8048f55:	83 ec 68             	sub    $0x68,%esp
 8048f58:	c7 45 f4 00 00 00 00 	movl   $0x0,-0xc(%ebp)
 8048f5f:	8d 45 b0             	lea    -0x50(%ebp),%eax
 8048f62:	25 f8 3f 00 00       	and    $0x3ff8,%eax
 8048f67:	89 c2                	mov    %eax,%edx
 8048f69:	8b 45 0c             	mov    0xc(%ebp),%eax
 8048f6c:	01 d0                	add    %edx,%eax
 8048f6e:	89 45 f4             	mov    %eax,-0xc(%ebp)
 8048f71:	8b 45 f4             	mov    -0xc(%ebp),%eax
 8048f74:	8d 50 0f             	lea    0xf(%eax),%edx
 8048f77:	b8 10 00 00 00       	mov    $0x10,%eax
 8048f7c:	83 e8 01             	sub    $0x1,%eax
 8048f7f:	01 d0                	add    %edx,%eax
 8048f81:	b9 10 00 00 00       	mov    $0x10,%ecx
 8048f86:	ba 00 00 00 00       	mov    $0x0,%edx
 8048f8b:	f7 f1                	div    %ecx
 8048f8d:	6b c0 10             	imul   $0x10,%eax,%eax
 8048f90:	29 c4                	sub    %eax,%esp
 8048f92:	8d 44 24 0c          	lea    0xc(%esp),%eax
 8048f96:	83 c0 0f             	add    $0xf,%eax
 8048f99:	c1 e8 04             	shr    $0x4,%eax
 8048f9c:	c1 e0 04             	shl    $0x4,%eax
 8048f9f:	89 45 f0             	mov    %eax,-0x10(%ebp)
 8048fa2:	8b 45 f4             	mov    -0xc(%ebp),%eax
 8048fa5:	89 44 24 08          	mov    %eax,0x8(%esp)
 8048fa9:	c7 44 24 04 f4 00 00 	movl   $0xf4,0x4(%esp)
 8048fb0:	00 
 8048fb1:	8b 45 f0             	mov    -0x10(%ebp),%eax
 8048fb4:	89 04 24             	mov    %eax,(%esp)
 8048fb7:	e8 f4 f9 ff ff       	call   80489b0 <memset@plt>
 8048fbc:	c7 04 24 f3 a5 04 08 	movl   $0x804a5f3,(%esp)
 8048fc3:	e8 68 f8 ff ff       	call   8048830 <printf@plt>
 8048fc8:	83 7d 08 00          	cmpl   $0x0,0x8(%ebp)
 8048fcc:	74 07                	je     8048fd5 <launch+0x83>
 8048fce:	e8 39 fd ff ff       	call   8048d0c <testn>
 8048fd3:	eb 05                	jmp    8048fda <launch+0x88>
 8048fd5:	e8 5c fc ff ff       	call   8048c36 <test>
 8048fda:	a1 20 d1 04 08       	mov    0x804d120,%eax
 8048fdf:	85 c0                	test   %eax,%eax
 8048fe1:	75 16                	jne    8048ff9 <launch+0xa7>
 8048fe3:	c7 04 24 88 a5 04 08 	movl   $0x804a588,(%esp)
 8048fea:	e8 01 f9 ff ff       	call   80488f0 <puts@plt>
 8048fef:	c7 05 20 d1 04 08 00 	movl   $0x0,0x804d120
 8048ff6:	00 00 00 
 8048ff9:	c9                   	leave  
 8048ffa:	c3                   	ret    

08048ffb <launcher>:
 8048ffb:	55                   	push   %ebp
 8048ffc:	89 e5                	mov    %esp,%ebp
 8048ffe:	83 ec 38             	sub    $0x38,%esp
 8049001:	8b 45 08             	mov    0x8(%ebp),%eax
 8049004:	a3 2c d1 04 08       	mov    %eax,0x804d12c
 8049009:	8b 45 0c             	mov    0xc(%ebp),%eax
 804900c:	a3 30 d1 04 08       	mov    %eax,0x804d130
 8049011:	c7 44 24 14 00 00 00 	movl   $0x0,0x14(%esp)
 8049018:	00 
 8049019:	c7 44 24 10 00 00 00 	movl   $0x0,0x10(%esp)
 8049020:	00 
 8049021:	c7 44 24 0c 22 01 00 	movl   $0x122,0xc(%esp)
 8049028:	00 
 8049029:	c7 44 24 08 07 00 00 	movl   $0x7,0x8(%esp)
 8049030:	00 
 8049031:	c7 44 24 04 00 00 10 	movl   $0x100000,0x4(%esp)
 8049038:	00 
 8049039:	c7 04 24 00 60 58 55 	movl   $0x55586000,(%esp)
 8049040:	e8 eb f8 ff ff       	call   8048930 <mmap@plt>
 8049045:	89 45 f4             	mov    %eax,-0xc(%ebp)
 8049048:	83 7d f4 ff          	cmpl   $0xffffffff,-0xc(%ebp)
 804904c:	75 31                	jne    804907f <launcher+0x84>
 804904e:	a1 00 d1 04 08       	mov    0x804d100,%eax
 8049053:	89 44 24 0c          	mov    %eax,0xc(%esp)
 8049057:	c7 44 24 08 47 00 00 	movl   $0x47,0x8(%esp)
 804905e:	00 
 804905f:	c7 44 24 04 01 00 00 	movl   $0x1,0x4(%esp)
 8049066:	00 
 8049067:	c7 04 24 00 a6 04 08 	movl   $0x804a600,(%esp)
 804906e:	e8 3d f8 ff ff       	call   80488b0 <fwrite@plt>
 8049073:	c7 04 24 01 00 00 00 	movl   $0x1,(%esp)
 804907a:	e8 91 f8 ff ff       	call   8048910 <exit@plt>
 804907f:	8b 45 f4             	mov    -0xc(%ebp),%eax
 8049082:	05 f8 ff 0f 00       	add    $0xffff8,%eax
 8049087:	a3 40 d1 04 08       	mov    %eax,0x804d140
 804908c:	8b 15 40 d1 04 08    	mov    0x804d140,%edx
 8049092:	89 e0                	mov    %esp,%eax
 8049094:	89 d4                	mov    %edx,%esp
 8049096:	89 c2                	mov    %eax,%edx
 8049098:	89 15 34 d1 04 08    	mov    %edx,0x804d134
 804909e:	8b 15 30 d1 04 08    	mov    0x804d130,%edx
 80490a4:	a1 2c d1 04 08       	mov    0x804d12c,%eax
 80490a9:	89 54 24 04          	mov    %edx,0x4(%esp)
 80490ad:	89 04 24             	mov    %eax,(%esp)
 80490b0:	e8 9d fe ff ff       	call   8048f52 <launch>
 80490b5:	a1 34 d1 04 08       	mov    0x804d134,%eax
 80490ba:	89 c4                	mov    %eax,%esp
 80490bc:	c7 44 24 04 00 00 10 	movl   $0x100000,0x4(%esp)
 80490c3:	00 
 80490c4:	8b 45 f4             	mov    -0xc(%ebp),%eax
 80490c7:	89 04 24             	mov    %eax,(%esp)
 80490ca:	e8 11 f9 ff ff       	call   80489e0 <munmap@plt>
 80490cf:	c9                   	leave  
 80490d0:	c3                   	ret    

080490d1 <main>:
 80490d1:	55                   	push   %ebp
 80490d2:	89 e5                	mov    %esp,%ebp
 80490d4:	53                   	push   %ebx
 80490d5:	83 e4 f0             	and    $0xfffffff0,%esp
 80490d8:	83 ec 30             	sub    $0x30,%esp
 80490db:	c7 44 24 20 00 00 00 	movl   $0x0,0x20(%esp)
 80490e2:	00 
 80490e3:	c7 44 24 2c 00 00 00 	movl   $0x0,0x2c(%esp)
 80490ea:	00 
 80490eb:	c7 44 24 24 01 00 00 	movl   $0x1,0x24(%esp)
 80490f2:	00 
 80490f3:	c7 44 24 04 fe 8e 04 	movl   $0x8048efe,0x4(%esp)
 80490fa:	08 
 80490fb:	c7 04 24 0b 00 00 00 	movl   $0xb,(%esp)
 8049102:	e8 69 f7 ff ff       	call   8048870 <signal@plt>
 8049107:	c7 44 24 04 d4 8e 04 	movl   $0x8048ed4,0x4(%esp)
 804910e:	08 
 804910f:	c7 04 24 07 00 00 00 	movl   $0x7,(%esp)
 8049116:	e8 55 f7 ff ff       	call   8048870 <signal@plt>
 804911b:	c7 44 24 04 28 8f 04 	movl   $0x8048f28,0x4(%esp)
 8049122:	08 
 8049123:	c7 04 24 04 00 00 00 	movl   $0x4,(%esp)
 804912a:	e8 41 f7 ff ff       	call   8048870 <signal@plt>
 804912f:	a1 04 d1 04 08       	mov    0x804d104,%eax
 8049134:	a3 18 d1 04 08       	mov    %eax,0x804d118
 8049139:	e9 82 00 00 00       	jmp    80491c0 <main+0xef>
 804913e:	0f be 44 24 1f       	movsbl 0x1f(%esp),%eax
 8049143:	83 f8 6e             	cmp    $0x6e,%eax
 8049146:	74 27                	je     804916f <main+0x9e>
 8049148:	83 f8 6e             	cmp    $0x6e,%eax
 804914b:	7f 07                	jg     8049154 <main+0x83>
 804914d:	83 f8 68             	cmp    $0x68,%eax
 8049150:	74 0e                	je     8049160 <main+0x8f>
 8049152:	eb 5f                	jmp    80491b3 <main+0xe2>
 8049154:	83 f8 73             	cmp    $0x73,%eax
 8049157:	74 4e                	je     80491a7 <main+0xd6>
 8049159:	83 f8 75             	cmp    $0x75,%eax
 804915c:	74 23                	je     8049181 <main+0xb0>
 804915e:	eb 53                	jmp    80491b3 <main+0xe2>
 8049160:	8b 45 0c             	mov    0xc(%ebp),%eax
 8049163:	8b 00                	mov    (%eax),%eax
 8049165:	89 04 24             	mov    %eax,(%esp)
 8049168:	e8 12 fd ff ff       	call   8048e7f <usage>
 804916d:	eb 51                	jmp    80491c0 <main+0xef>
 804916f:	c7 44 24 2c 01 00 00 	movl   $0x1,0x2c(%esp)
 8049176:	00 
 8049177:	c7 44 24 24 05 00 00 	movl   $0x5,0x24(%esp)
 804917e:	00 
 804917f:	eb 3f                	jmp    80491c0 <main+0xef>
 8049181:	a1 08 d1 04 08       	mov    0x804d108,%eax
 8049186:	89 04 24             	mov    %eax,(%esp)
 8049189:	e8 b2 f6 ff ff       	call   8048840 <strdup@plt>
 804918e:	a3 10 d1 04 08       	mov    %eax,0x804d110
 8049193:	a1 10 d1 04 08       	mov    0x804d110,%eax
 8049198:	89 04 24             	mov    %eax,(%esp)
 804919b:	e8 08 11 00 00       	call   804a2a8 <gencookie>
 80491a0:	a3 1c d1 04 08       	mov    %eax,0x804d11c
 80491a5:	eb 19                	jmp    80491c0 <main+0xef>
 80491a7:	c7 05 14 d1 04 08 01 	movl   $0x1,0x804d114
 80491ae:	00 00 00 
 80491b1:	eb 0d                	jmp    80491c0 <main+0xef>
 80491b3:	8b 45 0c             	mov    0xc(%ebp),%eax
 80491b6:	8b 00                	mov    (%eax),%eax
 80491b8:	89 04 24             	mov    %eax,(%esp)
 80491bb:	e8 bf fc ff ff       	call   8048e7f <usage>
 80491c0:	c7 44 24 08 48 a6 04 	movl   $0x804a648,0x8(%esp)
 80491c7:	08 
 80491c8:	8b 45 0c             	mov    0xc(%ebp),%eax
 80491cb:	89 44 24 04          	mov    %eax,0x4(%esp)
 80491cf:	8b 45 08             	mov    0x8(%ebp),%eax
 80491d2:	89 04 24             	mov    %eax,(%esp)
 80491d5:	e8 a6 f7 ff ff       	call   8048980 <getopt@plt>
 80491da:	88 44 24 1f          	mov    %al,0x1f(%esp)
 80491de:	80 7c 24 1f ff       	cmpb   $0xff,0x1f(%esp)
 80491e3:	0f 85 55 ff ff ff    	jne    804913e <main+0x6d>
 80491e9:	a1 10 d1 04 08       	mov    0x804d110,%eax
 80491ee:	85 c0                	test   %eax,%eax
 80491f0:	75 22                	jne    8049214 <main+0x143>
 80491f2:	8b 45 0c             	mov    0xc(%ebp),%eax
 80491f5:	8b 00                	mov    (%eax),%eax
 80491f7:	89 44 24 04          	mov    %eax,0x4(%esp)
 80491fb:	c7 04 24 50 a6 04 08 	movl   $0x804a650,(%esp)
 8049202:	e8 29 f6 ff ff       	call   8048830 <printf@plt>
 8049207:	8b 45 0c             	mov    0xc(%ebp),%eax
 804920a:	8b 00                	mov    (%eax),%eax
 804920c:	89 04 24             	mov    %eax,(%esp)
 804920f:	e8 6b fc ff ff       	call   8048e7f <usage>
 8049214:	e8 23 01 00 00       	call   804933c <initialize_bomb>
 8049219:	a1 10 d1 04 08       	mov    0x804d110,%eax
 804921e:	89 44 24 04          	mov    %eax,0x4(%esp)
 8049222:	c7 04 24 7c a6 04 08 	movl   $0x804a67c,(%esp)
 8049229:	e8 02 f6 ff ff       	call   8048830 <printf@plt>
 804922e:	a1 1c d1 04 08       	mov    0x804d11c,%eax
 8049233:	89 44 24 04          	mov    %eax,0x4(%esp)
 8049237:	c7 04 24 88 a6 04 08 	movl   $0x804a688,(%esp)
 804923e:	e8 ed f5 ff ff       	call   8048830 <printf@plt>
 8049243:	a1 1c d1 04 08       	mov    0x804d11c,%eax
 8049248:	89 04 24             	mov    %eax,(%esp)
 804924b:	e8 d0 f5 ff ff       	call   8048820 <srandom@plt>
 8049250:	e8 bb f7 ff ff       	call   8048a10 <random@plt>
 8049255:	25 f8 0f 00 00       	and    $0xff8,%eax
 804925a:	89 44 24 20          	mov    %eax,0x20(%esp)
 804925e:	8b 44 24 24          	mov    0x24(%esp),%eax
 8049262:	c7 44 24 04 04 00 00 	movl   $0x4,0x4(%esp)
 8049269:	00 
 804926a:	89 04 24             	mov    %eax,(%esp)
 804926d:	e8 de f7 ff ff       	call   8048a50 <calloc@plt>
 8049272:	89 44 24 18          	mov    %eax,0x18(%esp)
 8049276:	c7 44 24 28 00 00 00 	movl   $0x0,0x28(%esp)
 804927d:	00 
 804927e:	eb 21                	jmp    80492a1 <main+0x1d0>
 8049280:	8b 44 24 28          	mov    0x28(%esp),%eax
 8049284:	8d 14 85 00 00 00 00 	lea    0x0(,%eax,4),%edx
 804928b:	8b 44 24 18          	mov    0x18(%esp),%eax
 804928f:	8d 1c 02             	lea    (%edx,%eax,1),%ebx
 8049292:	e8 79 f7 ff ff       	call   8048a10 <random@plt>
 8049297:	83 e0 38             	and    $0x38,%eax
 804929a:	89 03                	mov    %eax,(%ebx)
 804929c:	83 44 24 28 01       	addl   $0x1,0x28(%esp)
 80492a1:	8b 44 24 24          	mov    0x24(%esp),%eax
 80492a5:	83 e8 02             	sub    $0x2,%eax
 80492a8:	3b 44 24 28          	cmp    0x28(%esp),%eax
 80492ac:	7f d2                	jg     8049280 <main+0x1af>
 80492ae:	83 7c 24 24 01       	cmpl   $0x1,0x24(%esp)
 80492b3:	7e 1c                	jle    80492d1 <main+0x200>
 80492b5:	8b 44 24 24          	mov    0x24(%esp),%eax
 80492b9:	05 fe ff ff 3f       	add    $0x3ffffffe,%eax
 80492be:	8d 14 85 00 00 00 00 	lea    0x0(,%eax,4),%edx
 80492c5:	8b 44 24 18          	mov    0x18(%esp),%eax
 80492c9:	01 d0                	add    %edx,%eax
 80492cb:	c7 00 38 00 00 00    	movl   $0x38,(%eax)
 80492d1:	8b 44 24 24          	mov    0x24(%esp),%eax
 80492d5:	05 ff ff ff 3f       	add    $0x3fffffff,%eax
 80492da:	8d 14 85 00 00 00 00 	lea    0x0(,%eax,4),%edx
 80492e1:	8b 44 24 18          	mov    0x18(%esp),%eax
 80492e5:	01 d0                	add    %edx,%eax
 80492e7:	c7 00 00 00 00 00    	movl   $0x0,(%eax)
 80492ed:	c7 44 24 28 00 00 00 	movl   $0x0,0x28(%esp)
 80492f4:	00 
 80492f5:	eb 2e                	jmp    8049325 <main+0x254>
 80492f7:	8b 44 24 28          	mov    0x28(%esp),%eax
 80492fb:	8d 14 85 00 00 00 00 	lea    0x0(,%eax,4),%edx
 8049302:	8b 44 24 18          	mov    0x18(%esp),%eax
 8049306:	01 d0                	add    %edx,%eax
 8049308:	8b 10                	mov    (%eax),%edx
 804930a:	8b 44 24 20          	mov    0x20(%esp),%eax
 804930e:	01 d0                	add    %edx,%eax
 8049310:	89 44 24 04          	mov    %eax,0x4(%esp)
 8049314:	8b 44 24 2c          	mov    0x2c(%esp),%eax
 8049318:	89 04 24             	mov    %eax,(%esp)
 804931b:	e8 db fc ff ff       	call   8048ffb <launcher>
 8049320:	83 44 24 28 01       	addl   $0x1,0x28(%esp)
 8049325:	8b 44 24 28          	mov    0x28(%esp),%eax
 8049329:	3b 44 24 24          	cmp    0x24(%esp),%eax
 804932d:	7c c8                	jl     80492f7 <main+0x226>
 804932f:	b8 00 00 00 00       	mov    $0x0,%eax
 8049334:	8b 5d fc             	mov    -0x4(%ebp),%ebx
 8049337:	c9                   	leave  
 8049338:	c3                   	ret    
 8049339:	66 90                	xchg   %ax,%ax
 804933b:	90                   	nop

0804933c <initialize_bomb>:
 804933c:	55                   	push   %ebp
 804933d:	89 e5                	mov    %esp,%ebp
 804933f:	81 ec 28 24 00 00    	sub    $0x2428,%esp
 8049345:	c7 45 f0 00 00 00 00 	movl   $0x0,-0x10(%ebp)
 804934c:	a1 14 d1 04 08       	mov    0x804d114,%eax
 8049351:	85 c0                	test   %eax,%eax
 8049353:	0f 84 0c 01 00 00    	je     8049465 <initialize_bomb+0x129>
 8049359:	c7 44 24 04 00 04 00 	movl   $0x400,0x4(%esp)
 8049360:	00 
 8049361:	8d 85 f0 fb ff ff    	lea    -0x410(%ebp),%eax
 8049367:	89 04 24             	mov    %eax,(%esp)
 804936a:	e8 71 f5 ff ff       	call   80488e0 <gethostname@plt>
 804936f:	85 c0                	test   %eax,%eax
 8049371:	74 18                	je     804938b <initialize_bomb+0x4f>
 8049373:	c7 04 24 e8 a6 04 08 	movl   $0x804a6e8,(%esp)
 804937a:	e8 71 f5 ff ff       	call   80488f0 <puts@plt>
 804937f:	c7 04 24 08 00 00 00 	movl   $0x8,(%esp)
 8049386:	e8 85 f5 ff ff       	call   8048910 <exit@plt>
 804938b:	c7 45 f4 00 00 00 00 	movl   $0x0,-0xc(%ebp)
 8049392:	eb 2d                	jmp    80493c1 <initialize_bomb+0x85>
 8049394:	8b 45 f4             	mov    -0xc(%ebp),%eax
 8049397:	8b 04 85 e0 c0 04 08 	mov    0x804c0e0(,%eax,4),%eax
 804939e:	8d 95 f0 fb ff ff    	lea    -0x410(%ebp),%edx
 80493a4:	89 54 24 04          	mov    %edx,0x4(%esp)
 80493a8:	89 04 24             	mov    %eax,(%esp)
 80493ab:	e8 e0 f5 ff ff       	call   8048990 <strcasecmp@plt>
 80493b0:	85 c0                	test   %eax,%eax
 80493b2:	75 09                	jne    80493bd <initialize_bomb+0x81>
 80493b4:	c7 45 f0 01 00 00 00 	movl   $0x1,-0x10(%ebp)
 80493bb:	eb 12                	jmp    80493cf <initialize_bomb+0x93>
 80493bd:	83 45 f4 01          	addl   $0x1,-0xc(%ebp)
 80493c1:	8b 45 f4             	mov    -0xc(%ebp),%eax
 80493c4:	8b 04 85 e0 c0 04 08 	mov    0x804c0e0(,%eax,4),%eax
 80493cb:	85 c0                	test   %eax,%eax
 80493cd:	75 c5                	jne    8049394 <initialize_bomb+0x58>
 80493cf:	83 7d f0 00          	cmpl   $0x0,-0x10(%ebp)
 80493d3:	75 4f                	jne    8049424 <initialize_bomb+0xe8>
 80493d5:	8d 85 f0 fb ff ff    	lea    -0x410(%ebp),%eax
 80493db:	89 44 24 04          	mov    %eax,0x4(%esp)
 80493df:	c7 04 24 20 a7 04 08 	movl   $0x804a720,(%esp)
 80493e6:	e8 45 f4 ff ff       	call   8048830 <printf@plt>
 80493eb:	c7 45 f4 00 00 00 00 	movl   $0x0,-0xc(%ebp)
 80493f2:	eb 16                	jmp    804940a <initialize_bomb+0xce>
 80493f4:	8b 45 f4             	mov    -0xc(%ebp),%eax
 80493f7:	8b 04 85 e0 c0 04 08 	mov    0x804c0e0(,%eax,4),%eax
 80493fe:	89 04 24             	mov    %eax,(%esp)
 8049401:	e8 ea f4 ff ff       	call   80488f0 <puts@plt>
 8049406:	83 45 f4 01          	addl   $0x1,-0xc(%ebp)
 804940a:	8b 45 f4             	mov    -0xc(%ebp),%eax
 804940d:	8b 04 85 e0 c0 04 08 	mov    0x804c0e0(,%eax,4),%eax
 8049414:	85 c0                	test   %eax,%eax
 8049416:	75 dc                	jne    80493f4 <initialize_bomb+0xb8>
 8049418:	c7 04 24 08 00 00 00 	movl   $0x8,(%esp)
 804941f:	e8 ec f4 ff ff       	call   8048910 <exit@plt>
 8049424:	8d 85 f0 db ff ff    	lea    -0x2410(%ebp),%eax
 804942a:	89 04 24             	mov    %eax,(%esp)
 804942d:	e8 91 0b 00 00       	call   8049fc3 <init_driver>
 8049432:	85 c0                	test   %eax,%eax
 8049434:	79 22                	jns    8049458 <initialize_bomb+0x11c>
 8049436:	8d 85 f0 db ff ff    	lea    -0x2410(%ebp),%eax
 804943c:	89 44 24 04          	mov    %eax,0x4(%esp)
 8049440:	c7 04 24 5b a7 04 08 	movl   $0x804a75b,(%esp)
 8049447:	e8 e4 f3 ff ff       	call   8048830 <printf@plt>
 804944c:	c7 04 24 08 00 00 00 	movl   $0x8,(%esp)
 8049453:	e8 b8 f4 ff ff       	call   8048910 <exit@plt>
 8049458:	a1 f4 d0 04 08       	mov    0x804d0f4,%eax
 804945d:	89 04 24             	mov    %eax,(%esp)
 8049460:	e8 22 0b 00 00       	call   8049f87 <init_timeout>
 8049465:	c9                   	leave  
 8049466:	c3                   	ret    

08049467 <validate>:
 8049467:	55                   	push   %ebp
 8049468:	89 e5                	mov    %esp,%ebp
 804946a:	81 ec 38 40 00 00    	sub    $0x4038,%esp
 8049470:	a1 10 d1 04 08       	mov    0x804d110,%eax
 8049475:	85 c0                	test   %eax,%eax
 8049477:	75 11                	jne    804948a <validate+0x23>
 8049479:	c7 04 24 70 a7 04 08 	movl   $0x804a770,(%esp)
 8049480:	e8 6b f4 ff ff       	call   80488f0 <puts@plt>
 8049485:	e9 2d 01 00 00       	jmp    80495b7 <validate+0x150>
 804948a:	83 7d 08 00          	cmpl   $0x0,0x8(%ebp)
 804948e:	78 06                	js     8049496 <validate+0x2f>
 8049490:	83 7d 08 04          	cmpl   $0x4,0x8(%ebp)
 8049494:	7e 11                	jle    80494a7 <validate+0x40>
 8049496:	c7 04 24 9c a7 04 08 	movl   $0x804a79c,(%esp)
 804949d:	e8 4e f4 ff ff       	call   80488f0 <puts@plt>
 80494a2:	e9 10 01 00 00       	jmp    80495b7 <validate+0x150>
 80494a7:	c7 05 20 d1 04 08 01 	movl   $0x1,0x804d120
 80494ae:	00 00 00 
 80494b1:	8b 45 08             	mov    0x8(%ebp),%eax
 80494b4:	8b 04 85 e0 d0 04 08 	mov    0x804d0e0(,%eax,4),%eax
 80494bb:	8d 50 ff             	lea    -0x1(%eax),%edx
 80494be:	8b 45 08             	mov    0x8(%ebp),%eax
 80494c1:	89 14 85 e0 d0 04 08 	mov    %edx,0x804d0e0(,%eax,4)
 80494c8:	8b 45 08             	mov    0x8(%ebp),%eax
 80494cb:	8b 04 85 e0 d0 04 08 	mov    0x804d0e0(,%eax,4),%eax
 80494d2:	85 c0                	test   %eax,%eax
 80494d4:	7e 11                	jle    80494e7 <validate+0x80>
 80494d6:	c7 04 24 c2 a7 04 08 	movl   $0x804a7c2,(%esp)
 80494dd:	e8 0e f4 ff ff       	call   80488f0 <puts@plt>
 80494e2:	e9 d0 00 00 00       	jmp    80495b7 <validate+0x150>
 80494e7:	c7 04 24 cd a7 04 08 	movl   $0x804a7cd,(%esp)
 80494ee:	e8 fd f3 ff ff       	call   80488f0 <puts@plt>
 80494f3:	a1 14 d1 04 08       	mov    0x804d114,%eax
 80494f8:	85 c0                	test   %eax,%eax
 80494fa:	0f 84 ab 00 00 00    	je     80495ab <validate+0x144>
 8049500:	c7 04 24 60 d1 04 08 	movl   $0x804d160,(%esp)
 8049507:	e8 34 f4 ff ff       	call   8048940 <strlen@plt>
 804950c:	83 c0 20             	add    $0x20,%eax
 804950f:	3d 00 20 00 00       	cmp    $0x2000,%eax
 8049514:	76 11                	jbe    8049527 <validate+0xc0>
 8049516:	c7 04 24 d4 a7 04 08 	movl   $0x804a7d4,(%esp)
 804951d:	e8 ce f3 ff ff       	call   80488f0 <puts@plt>
 8049522:	e9 90 00 00 00       	jmp    80495b7 <validate+0x150>
 8049527:	a1 1c d1 04 08       	mov    0x804d11c,%eax
 804952c:	c7 44 24 10 60 d1 04 	movl   $0x804d160,0x10(%esp)
 8049533:	08 
 8049534:	89 44 24 0c          	mov    %eax,0xc(%esp)
 8049538:	8b 45 08             	mov    0x8(%ebp),%eax
 804953b:	89 44 24 08          	mov    %eax,0x8(%esp)
 804953f:	c7 44 24 04 0b a8 04 	movl   $0x804a80b,0x4(%esp)
 8049546:	08 
 8049547:	8d 85 f4 df ff ff    	lea    -0x200c(%ebp),%eax
 804954d:	89 04 24             	mov    %eax,(%esp)
 8049550:	e8 9b f4 ff ff       	call   80489f0 <sprintf@plt>
 8049555:	a1 10 d1 04 08       	mov    0x804d110,%eax
 804955a:	8d 95 f4 bf ff ff    	lea    -0x400c(%ebp),%edx
 8049560:	89 54 24 0c          	mov    %edx,0xc(%esp)
 8049564:	c7 44 24 08 00 00 00 	movl   $0x0,0x8(%esp)
 804956b:	00 
 804956c:	8d 95 f4 df ff ff    	lea    -0x200c(%ebp),%edx
 8049572:	89 54 24 04          	mov    %edx,0x4(%esp)
 8049576:	89 04 24             	mov    %eax,(%esp)
 8049579:	e8 0e 0c 00 00       	call   804a18c <driver_post>
 804957e:	89 45 f4             	mov    %eax,-0xc(%ebp)
 8049581:	83 7d f4 00          	cmpl   $0x0,-0xc(%ebp)
 8049585:	75 0e                	jne    8049595 <validate+0x12e>
 8049587:	c7 04 24 14 a8 04 08 	movl   $0x804a814,(%esp)
 804958e:	e8 5d f3 ff ff       	call   80488f0 <puts@plt>
 8049593:	eb 16                	jmp    80495ab <validate+0x144>
 8049595:	8d 85 f4 bf ff ff    	lea    -0x400c(%ebp),%eax
 804959b:	89 44 24 04          	mov    %eax,0x4(%esp)
 804959f:	c7 04 24 44 a8 04 08 	movl   $0x804a844,(%esp)
 80495a6:	e8 85 f2 ff ff       	call   8048830 <printf@plt>
 80495ab:	c7 04 24 82 a8 04 08 	movl   $0x804a882,(%esp)
 80495b2:	e8 39 f3 ff ff       	call   80488f0 <puts@plt>
 80495b7:	c9                   	leave  
 80495b8:	c3                   	ret    
 80495b9:	66 90                	xchg   %ax,%ax
 80495bb:	90                   	nop

080495bc <sigalrm_handler>:
 80495bc:	55                   	push   %ebp
 80495bd:	89 e5                	mov    %esp,%ebp
 80495bf:	83 ec 18             	sub    $0x18,%esp
 80495c2:	a1 00 d1 04 08       	mov    0x804d100,%eax
 80495c7:	c7 44 24 08 00 00 00 	movl   $0x0,0x8(%esp)
 80495ce:	00 
 80495cf:	c7 44 24 04 8c a8 04 	movl   $0x804a88c,0x4(%esp)
 80495d6:	08 
 80495d7:	89 04 24             	mov    %eax,(%esp)
 80495da:	e8 81 f3 ff ff       	call   8048960 <fprintf@plt>
 80495df:	c7 04 24 01 00 00 00 	movl   $0x1,(%esp)
 80495e6:	e8 25 f3 ff ff       	call   8048910 <exit@plt>

080495eb <rio_readinitb>:
 80495eb:	55                   	push   %ebp
 80495ec:	89 e5                	mov    %esp,%ebp
 80495ee:	8b 45 08             	mov    0x8(%ebp),%eax
 80495f1:	8b 55 0c             	mov    0xc(%ebp),%edx
 80495f4:	89 10                	mov    %edx,(%eax)
 80495f6:	8b 45 08             	mov    0x8(%ebp),%eax
 80495f9:	c7 40 04 00 00 00 00 	movl   $0x0,0x4(%eax)
 8049600:	8b 45 08             	mov    0x8(%ebp),%eax
 8049603:	8d 50 0c             	lea    0xc(%eax),%edx
 8049606:	8b 45 08             	mov    0x8(%ebp),%eax
 8049609:	89 50 08             	mov    %edx,0x8(%eax)
 804960c:	5d                   	pop    %ebp
 804960d:	c3                   	ret    

0804960e <rio_read>:
 804960e:	55                   	push   %ebp
 804960f:	89 e5                	mov    %esp,%ebp
 8049611:	83 ec 28             	sub    $0x28,%esp
 8049614:	eb 62                	jmp    8049678 <rio_read+0x6a>
 8049616:	8b 45 08             	mov    0x8(%ebp),%eax
 8049619:	8d 50 0c             	lea    0xc(%eax),%edx
 804961c:	8b 45 08             	mov    0x8(%ebp),%eax
 804961f:	8b 00                	mov    (%eax),%eax
 8049621:	c7 44 24 08 00 20 00 	movl   $0x2000,0x8(%esp)
 8049628:	00 
 8049629:	89 54 24 04          	mov    %edx,0x4(%esp)
 804962d:	89 04 24             	mov    %eax,(%esp)
 8049630:	e8 db f1 ff ff       	call   8048810 <read@plt>
 8049635:	8b 55 08             	mov    0x8(%ebp),%edx
 8049638:	89 42 04             	mov    %eax,0x4(%edx)
 804963b:	8b 45 08             	mov    0x8(%ebp),%eax
 804963e:	8b 40 04             	mov    0x4(%eax),%eax
 8049641:	85 c0                	test   %eax,%eax
 8049643:	79 16                	jns    804965b <rio_read+0x4d>
 8049645:	e8 76 f3 ff ff       	call   80489c0 <__errno_location@plt>
 804964a:	8b 00                	mov    (%eax),%eax
 804964c:	83 f8 04             	cmp    $0x4,%eax
 804964f:	74 27                	je     8049678 <rio_read+0x6a>
 8049651:	b8 ff ff ff ff       	mov    $0xffffffff,%eax
 8049656:	e9 82 00 00 00       	jmp    80496dd <rio_read+0xcf>
 804965b:	8b 45 08             	mov    0x8(%ebp),%eax
 804965e:	8b 40 04             	mov    0x4(%eax),%eax
 8049661:	85 c0                	test   %eax,%eax
 8049663:	75 07                	jne    804966c <rio_read+0x5e>
 8049665:	b8 00 00 00 00       	mov    $0x0,%eax
 804966a:	eb 71                	jmp    80496dd <rio_read+0xcf>
 804966c:	8b 45 08             	mov    0x8(%ebp),%eax
 804966f:	8d 50 0c             	lea    0xc(%eax),%edx
 8049672:	8b 45 08             	mov    0x8(%ebp),%eax
 8049675:	89 50 08             	mov    %edx,0x8(%eax)
 8049678:	8b 45 08             	mov    0x8(%ebp),%eax
 804967b:	8b 40 04             	mov    0x4(%eax),%eax
 804967e:	85 c0                	test   %eax,%eax
 8049680:	7e 94                	jle    8049616 <rio_read+0x8>
 8049682:	8b 45 10             	mov    0x10(%ebp),%eax
 8049685:	89 45 f4             	mov    %eax,-0xc(%ebp)
 8049688:	8b 45 08             	mov    0x8(%ebp),%eax
 804968b:	8b 40 04             	mov    0x4(%eax),%eax
 804968e:	3b 45 10             	cmp    0x10(%ebp),%eax
 8049691:	73 09                	jae    804969c <rio_read+0x8e>
 8049693:	8b 45 08             	mov    0x8(%ebp),%eax
 8049696:	8b 40 04             	mov    0x4(%eax),%eax
 8049699:	89 45 f4             	mov    %eax,-0xc(%ebp)
 804969c:	8b 55 f4             	mov    -0xc(%ebp),%edx
 804969f:	8b 45 08             	mov    0x8(%ebp),%eax
 80496a2:	8b 40 08             	mov    0x8(%eax),%eax
 80496a5:	89 54 24 08          	mov    %edx,0x8(%esp)
 80496a9:	89 44 24 04          	mov    %eax,0x4(%esp)
 80496ad:	8b 45 0c             	mov    0xc(%ebp),%eax
 80496b0:	89 04 24             	mov    %eax,(%esp)
 80496b3:	e8 98 f1 ff ff       	call   8048850 <memcpy@plt>
 80496b8:	8b 45 08             	mov    0x8(%ebp),%eax
 80496bb:	8b 50 08             	mov    0x8(%eax),%edx
 80496be:	8b 45 f4             	mov    -0xc(%ebp),%eax
 80496c1:	01 c2                	add    %eax,%edx
 80496c3:	8b 45 08             	mov    0x8(%ebp),%eax
 80496c6:	89 50 08             	mov    %edx,0x8(%eax)
 80496c9:	8b 45 08             	mov    0x8(%ebp),%eax
 80496cc:	8b 40 04             	mov    0x4(%eax),%eax
 80496cf:	2b 45 f4             	sub    -0xc(%ebp),%eax
 80496d2:	89 c2                	mov    %eax,%edx
 80496d4:	8b 45 08             	mov    0x8(%ebp),%eax
 80496d7:	89 50 04             	mov    %edx,0x4(%eax)
 80496da:	8b 45 f4             	mov    -0xc(%ebp),%eax
 80496dd:	c9                   	leave  
 80496de:	c3                   	ret    

080496df <rio_readlineb>:
 80496df:	55                   	push   %ebp
 80496e0:	89 e5                	mov    %esp,%ebp
 80496e2:	83 ec 28             	sub    $0x28,%esp
 80496e5:	8b 45 0c             	mov    0xc(%ebp),%eax
 80496e8:	89 45 f0             	mov    %eax,-0x10(%ebp)
 80496eb:	c7 45 f4 01 00 00 00 	movl   $0x1,-0xc(%ebp)
 80496f2:	eb 5c                	jmp    8049750 <rio_readlineb+0x71>
 80496f4:	c7 44 24 08 01 00 00 	movl   $0x1,0x8(%esp)
 80496fb:	00 
 80496fc:	8d 45 eb             	lea    -0x15(%ebp),%eax
 80496ff:	89 44 24 04          	mov    %eax,0x4(%esp)
 8049703:	8b 45 08             	mov    0x8(%ebp),%eax
 8049706:	89 04 24             	mov    %eax,(%esp)
 8049709:	e8 00 ff ff ff       	call   804960e <rio_read>
 804970e:	89 45 ec             	mov    %eax,-0x14(%ebp)
 8049711:	83 7d ec 01          	cmpl   $0x1,-0x14(%ebp)
 8049715:	75 19                	jne    8049730 <rio_readlineb+0x51>
 8049717:	8b 45 f0             	mov    -0x10(%ebp),%eax
 804971a:	8d 50 01             	lea    0x1(%eax),%edx
 804971d:	89 55 f0             	mov    %edx,-0x10(%ebp)
 8049720:	0f b6 55 eb          	movzbl -0x15(%ebp),%edx
 8049724:	88 10                	mov    %dl,(%eax)
 8049726:	0f b6 45 eb          	movzbl -0x15(%ebp),%eax
 804972a:	3c 0a                	cmp    $0xa,%al
 804972c:	75 1e                	jne    804974c <rio_readlineb+0x6d>
 804972e:	eb 28                	jmp    8049758 <rio_readlineb+0x79>
 8049730:	83 7d ec 00          	cmpl   $0x0,-0x14(%ebp)
 8049734:	75 0f                	jne    8049745 <rio_readlineb+0x66>
 8049736:	83 7d f4 01          	cmpl   $0x1,-0xc(%ebp)
 804973a:	75 07                	jne    8049743 <rio_readlineb+0x64>
 804973c:	b8 00 00 00 00       	mov    $0x0,%eax
 8049741:	eb 1e                	jmp    8049761 <rio_readlineb+0x82>
 8049743:	eb 13                	jmp    8049758 <rio_readlineb+0x79>
 8049745:	b8 ff ff ff ff       	mov    $0xffffffff,%eax
 804974a:	eb 15                	jmp    8049761 <rio_readlineb+0x82>
 804974c:	83 45 f4 01          	addl   $0x1,-0xc(%ebp)
 8049750:	8b 45 f4             	mov    -0xc(%ebp),%eax
 8049753:	3b 45 10             	cmp    0x10(%ebp),%eax
 8049756:	72 9c                	jb     80496f4 <rio_readlineb+0x15>
 8049758:	8b 45 f0             	mov    -0x10(%ebp),%eax
 804975b:	c6 00 00             	movb   $0x0,(%eax)
 804975e:	8b 45 f4             	mov    -0xc(%ebp),%eax
 8049761:	c9                   	leave  
 8049762:	c3                   	ret    

08049763 <rio_writen>:
 8049763:	55                   	push   %ebp
 8049764:	89 e5                	mov    %esp,%ebp
 8049766:	83 ec 28             	sub    $0x28,%esp
 8049769:	8b 45 10             	mov    0x10(%ebp),%eax
 804976c:	89 45 f4             	mov    %eax,-0xc(%ebp)
 804976f:	8b 45 0c             	mov    0xc(%ebp),%eax
 8049772:	89 45 ec             	mov    %eax,-0x14(%ebp)
 8049775:	eb 4a                	jmp    80497c1 <rio_writen+0x5e>
 8049777:	8b 45 f4             	mov    -0xc(%ebp),%eax
 804977a:	89 44 24 08          	mov    %eax,0x8(%esp)
 804977e:	8b 45 ec             	mov    -0x14(%ebp),%eax
 8049781:	89 44 24 04          	mov    %eax,0x4(%esp)
 8049785:	8b 45 08             	mov    0x8(%ebp),%eax
 8049788:	89 04 24             	mov    %eax,(%esp)
 804978b:	e8 e0 f1 ff ff       	call   8048970 <write@plt>
 8049790:	89 45 f0             	mov    %eax,-0x10(%ebp)
 8049793:	83 7d f0 00          	cmpl   $0x0,-0x10(%ebp)
 8049797:	7f 1c                	jg     80497b5 <rio_writen+0x52>
 8049799:	e8 22 f2 ff ff       	call   80489c0 <__errno_location@plt>
 804979e:	8b 00                	mov    (%eax),%eax
 80497a0:	83 f8 04             	cmp    $0x4,%eax
 80497a3:	75 09                	jne    80497ae <rio_writen+0x4b>
 80497a5:	c7 45 f0 00 00 00 00 	movl   $0x0,-0x10(%ebp)
 80497ac:	eb 07                	jmp    80497b5 <rio_writen+0x52>
 80497ae:	b8 ff ff ff ff       	mov    $0xffffffff,%eax
 80497b3:	eb 15                	jmp    80497ca <rio_writen+0x67>
 80497b5:	8b 45 f0             	mov    -0x10(%ebp),%eax
 80497b8:	29 45 f4             	sub    %eax,-0xc(%ebp)
 80497bb:	8b 45 f0             	mov    -0x10(%ebp),%eax
 80497be:	01 45 ec             	add    %eax,-0x14(%ebp)
 80497c1:	83 7d f4 00          	cmpl   $0x0,-0xc(%ebp)
 80497c5:	75 b0                	jne    8049777 <rio_writen+0x14>
 80497c7:	8b 45 10             	mov    0x10(%ebp),%eax
 80497ca:	c9                   	leave  
 80497cb:	c3                   	ret    

080497cc <urlencode>:
 80497cc:	55                   	push   %ebp
 80497cd:	89 e5                	mov    %esp,%ebp
 80497cf:	83 ec 28             	sub    $0x28,%esp
 80497d2:	8b 45 08             	mov    0x8(%ebp),%eax
 80497d5:	89 04 24             	mov    %eax,(%esp)
 80497d8:	e8 63 f1 ff ff       	call   8048940 <strlen@plt>
 80497dd:	89 45 f4             	mov    %eax,-0xc(%ebp)
 80497e0:	e9 0a 01 00 00       	jmp    80498ef <urlencode+0x123>
 80497e5:	8b 45 08             	mov    0x8(%ebp),%eax
 80497e8:	0f b6 00             	movzbl (%eax),%eax
 80497eb:	3c 2a                	cmp    $0x2a,%al
 80497ed:	74 5a                	je     8049849 <urlencode+0x7d>
 80497ef:	8b 45 08             	mov    0x8(%ebp),%eax
 80497f2:	0f b6 00             	movzbl (%eax),%eax
 80497f5:	3c 2d                	cmp    $0x2d,%al
 80497f7:	74 50                	je     8049849 <urlencode+0x7d>
 80497f9:	8b 45 08             	mov    0x8(%ebp),%eax
 80497fc:	0f b6 00             	movzbl (%eax),%eax
 80497ff:	3c 2e                	cmp    $0x2e,%al
 8049801:	74 46                	je     8049849 <urlencode+0x7d>
 8049803:	8b 45 08             	mov    0x8(%ebp),%eax
 8049806:	0f b6 00             	movzbl (%eax),%eax
 8049809:	3c 5f                	cmp    $0x5f,%al
 804980b:	74 3c                	je     8049849 <urlencode+0x7d>
 804980d:	8b 45 08             	mov    0x8(%ebp),%eax
 8049810:	0f b6 00             	movzbl (%eax),%eax
 8049813:	3c 2f                	cmp    $0x2f,%al
 8049815:	76 0a                	jbe    8049821 <urlencode+0x55>
 8049817:	8b 45 08             	mov    0x8(%ebp),%eax
 804981a:	0f b6 00             	movzbl (%eax),%eax
 804981d:	3c 39                	cmp    $0x39,%al
 804981f:	76 28                	jbe    8049849 <urlencode+0x7d>
 8049821:	8b 45 08             	mov    0x8(%ebp),%eax
 8049824:	0f b6 00             	movzbl (%eax),%eax
 8049827:	3c 40                	cmp    $0x40,%al
 8049829:	76 0a                	jbe    8049835 <urlencode+0x69>
 804982b:	8b 45 08             	mov    0x8(%ebp),%eax
 804982e:	0f b6 00             	movzbl (%eax),%eax
 8049831:	3c 5a                	cmp    $0x5a,%al
 8049833:	76 14                	jbe    8049849 <urlencode+0x7d>
 8049835:	8b 45 08             	mov    0x8(%ebp),%eax
 8049838:	0f b6 00             	movzbl (%eax),%eax
 804983b:	3c 60                	cmp    $0x60,%al
 804983d:	76 20                	jbe    804985f <urlencode+0x93>
 804983f:	8b 45 08             	mov    0x8(%ebp),%eax
 8049842:	0f b6 00             	movzbl (%eax),%eax
 8049845:	3c 7a                	cmp    $0x7a,%al
 8049847:	77 16                	ja     804985f <urlencode+0x93>
 8049849:	8b 45 0c             	mov    0xc(%ebp),%eax
 804984c:	8d 50 01             	lea    0x1(%eax),%edx
 804984f:	89 55 0c             	mov    %edx,0xc(%ebp)
 8049852:	8b 55 08             	mov    0x8(%ebp),%edx
 8049855:	0f b6 12             	movzbl (%edx),%edx
 8049858:	88 10                	mov    %dl,(%eax)
 804985a:	e9 8c 00 00 00       	jmp    80498eb <urlencode+0x11f>
 804985f:	8b 45 08             	mov    0x8(%ebp),%eax
 8049862:	0f b6 00             	movzbl (%eax),%eax
 8049865:	3c 20                	cmp    $0x20,%al
 8049867:	75 0e                	jne    8049877 <urlencode+0xab>
 8049869:	8b 45 0c             	mov    0xc(%ebp),%eax
 804986c:	8d 50 01             	lea    0x1(%eax),%edx
 804986f:	89 55 0c             	mov    %edx,0xc(%ebp)
 8049872:	c6 00 2b             	movb   $0x2b,(%eax)
 8049875:	eb 74                	jmp    80498eb <urlencode+0x11f>
 8049877:	8b 45 08             	mov    0x8(%ebp),%eax
 804987a:	0f b6 00             	movzbl (%eax),%eax
 804987d:	3c 1f                	cmp    $0x1f,%al
 804987f:	76 0a                	jbe    804988b <urlencode+0xbf>
 8049881:	8b 45 08             	mov    0x8(%ebp),%eax
 8049884:	0f b6 00             	movzbl (%eax),%eax
 8049887:	84 c0                	test   %al,%al
 8049889:	79 0a                	jns    8049895 <urlencode+0xc9>
 804988b:	8b 45 08             	mov    0x8(%ebp),%eax
 804988e:	0f b6 00             	movzbl (%eax),%eax
 8049891:	3c 09                	cmp    $0x9,%al
 8049893:	75 4f                	jne    80498e4 <urlencode+0x118>
 8049895:	8b 45 08             	mov    0x8(%ebp),%eax
 8049898:	0f b6 00             	movzbl (%eax),%eax
 804989b:	0f b6 c0             	movzbl %al,%eax
 804989e:	89 44 24 08          	mov    %eax,0x8(%esp)
 80498a2:	c7 44 24 04 b0 a8 04 	movl   $0x804a8b0,0x4(%esp)
 80498a9:	08 
 80498aa:	8d 45 ec             	lea    -0x14(%ebp),%eax
 80498ad:	89 04 24             	mov    %eax,(%esp)
 80498b0:	e8 3b f1 ff ff       	call   80489f0 <sprintf@plt>
 80498b5:	8b 45 0c             	mov    0xc(%ebp),%eax
 80498b8:	8d 50 01             	lea    0x1(%eax),%edx
 80498bb:	89 55 0c             	mov    %edx,0xc(%ebp)
 80498be:	0f b6 55 ec          	movzbl -0x14(%ebp),%edx
 80498c2:	88 10                	mov    %dl,(%eax)
 80498c4:	8b 45 0c             	mov    0xc(%ebp),%eax
 80498c7:	8d 50 01             	lea    0x1(%eax),%edx
 80498ca:	89 55 0c             	mov    %edx,0xc(%ebp)
 80498cd:	0f b6 55 ed          	movzbl -0x13(%ebp),%edx
 80498d1:	88 10                	mov    %dl,(%eax)
 80498d3:	8b 45 0c             	mov    0xc(%ebp),%eax
 80498d6:	8d 50 01             	lea    0x1(%eax),%edx
 80498d9:	89 55 0c             	mov    %edx,0xc(%ebp)
 80498dc:	0f b6 55 ee          	movzbl -0x12(%ebp),%edx
 80498e0:	88 10                	mov    %dl,(%eax)
 80498e2:	eb 07                	jmp    80498eb <urlencode+0x11f>
 80498e4:	b8 ff ff ff ff       	mov    $0xffffffff,%eax
 80498e9:	eb 1a                	jmp    8049905 <urlencode+0x139>
 80498eb:	83 45 08 01          	addl   $0x1,0x8(%ebp)
 80498ef:	8b 45 f4             	mov    -0xc(%ebp),%eax
 80498f2:	8d 50 ff             	lea    -0x1(%eax),%edx
 80498f5:	89 55 f4             	mov    %edx,-0xc(%ebp)
 80498f8:	85 c0                	test   %eax,%eax
 80498fa:	0f 85 e5 fe ff ff    	jne    80497e5 <urlencode+0x19>
 8049900:	b8 00 00 00 00       	mov    $0x0,%eax
 8049905:	c9                   	leave  
 8049906:	c3                   	ret    

08049907 <submitr>:
 8049907:	55                   	push   %ebp
 8049908:	89 e5                	mov    %esp,%ebp
 804990a:	57                   	push   %edi
 804990b:	56                   	push   %esi
 804990c:	53                   	push   %ebx
 804990d:	81 ec 5c a0 00 00    	sub    $0xa05c,%esp
 8049913:	c7 85 b8 7f ff ff 00 	movl   $0x0,-0x8048(%ebp)
 804991a:	00 00 00 
 804991d:	c7 44 24 08 00 00 00 	movl   $0x0,0x8(%esp)
 8049924:	00 
 8049925:	c7 44 24 04 01 00 00 	movl   $0x1,0x4(%esp)
 804992c:	00 
 804992d:	c7 04 24 02 00 00 00 	movl   $0x2,(%esp)
 8049934:	e8 c7 f0 ff ff       	call   8048a00 <socket@plt>
 8049939:	89 45 e4             	mov    %eax,-0x1c(%ebp)
 804993c:	83 7d e4 00          	cmpl   $0x0,-0x1c(%ebp)
 8049940:	79 51                	jns    8049993 <submitr+0x8c>
 8049942:	8b 45 20             	mov    0x20(%ebp),%eax
 8049945:	c7 00 45 72 72 6f    	movl   $0x6f727245,(%eax)
 804994b:	c7 40 04 72 3a 20 43 	movl   $0x43203a72,0x4(%eax)
 8049952:	c7 40 08 6c 69 65 6e 	movl   $0x6e65696c,0x8(%eax)
 8049959:	c7 40 0c 74 20 75 6e 	movl   $0x6e752074,0xc(%eax)
 8049960:	c7 40 10 61 62 6c 65 	movl   $0x656c6261,0x10(%eax)
 8049967:	c7 40 14 20 74 6f 20 	movl   $0x206f7420,0x14(%eax)
 804996e:	c7 40 18 63 72 65 61 	movl   $0x61657263,0x18(%eax)
 8049975:	c7 40 1c 74 65 20 73 	movl   $0x73206574,0x1c(%eax)
 804997c:	c7 40 20 6f 63 6b 65 	movl   $0x656b636f,0x20(%eax)
 8049983:	66 c7 40 24 74 00    	movw   $0x74,0x24(%eax)
 8049989:	b8 ff ff ff ff       	mov    $0xffffffff,%eax
 804998e:	e9 e9 05 00 00       	jmp    8049f7c <submitr+0x675>
 8049993:	8b 45 08             	mov    0x8(%ebp),%eax
 8049996:	89 04 24             	mov    %eax,(%esp)
 8049999:	e8 82 f0 ff ff       	call   8048a20 <gethostbyname@plt>
 804999e:	89 45 e0             	mov    %eax,-0x20(%ebp)
 80499a1:	83 7d e0 00          	cmpl   $0x0,-0x20(%ebp)
 80499a5:	75 2f                	jne    80499d6 <submitr+0xcf>
 80499a7:	8b 45 08             	mov    0x8(%ebp),%eax
 80499aa:	89 44 24 08          	mov    %eax,0x8(%esp)
 80499ae:	c7 44 24 04 b8 a8 04 	movl   $0x804a8b8,0x4(%esp)
 80499b5:	08 
 80499b6:	8b 45 20             	mov    0x20(%ebp),%eax
 80499b9:	89 04 24             	mov    %eax,(%esp)
 80499bc:	e8 2f f0 ff ff       	call   80489f0 <sprintf@plt>
 80499c1:	8b 45 e4             	mov    -0x1c(%ebp),%eax
 80499c4:	89 04 24             	mov    %eax,(%esp)
 80499c7:	e8 74 f0 ff ff       	call   8048a40 <close@plt>
 80499cc:	b8 ff ff ff ff       	mov    $0xffffffff,%eax
 80499d1:	e9 a6 05 00 00       	jmp    8049f7c <submitr+0x675>
 80499d6:	c7 44 24 04 10 00 00 	movl   $0x10,0x4(%esp)
 80499dd:	00 
 80499de:	8d 45 c8             	lea    -0x38(%ebp),%eax
 80499e1:	89 04 24             	mov    %eax,(%esp)
 80499e4:	e8 77 ee ff ff       	call   8048860 <bzero@plt>
 80499e9:	66 c7 45 c8 02 00    	movw   $0x2,-0x38(%ebp)
 80499ef:	8b 45 e0             	mov    -0x20(%ebp),%eax
 80499f2:	8b 40 0c             	mov    0xc(%eax),%eax
 80499f5:	89 c2                	mov    %eax,%edx
 80499f7:	8b 45 e0             	mov    -0x20(%ebp),%eax
 80499fa:	8b 40 10             	mov    0x10(%eax),%eax
 80499fd:	8b 00                	mov    (%eax),%eax
 80499ff:	89 54 24 08          	mov    %edx,0x8(%esp)
 8049a03:	8d 55 c8             	lea    -0x38(%ebp),%edx
 8049a06:	83 c2 04             	add    $0x4,%edx
 8049a09:	89 54 24 04          	mov    %edx,0x4(%esp)
 8049a0d:	89 04 24             	mov    %eax,(%esp)
 8049a10:	e8 ab ee ff ff       	call   80488c0 <bcopy@plt>
 8049a15:	8b 45 0c             	mov    0xc(%ebp),%eax
 8049a18:	0f b7 c0             	movzwl %ax,%eax
 8049a1b:	89 04 24             	mov    %eax,(%esp)
 8049a1e:	e8 7d ee ff ff       	call   80488a0 <htons@plt>
 8049a23:	66 89 45 ca          	mov    %ax,-0x36(%ebp)
 8049a27:	c7 44 24 08 10 00 00 	movl   $0x10,0x8(%esp)
 8049a2e:	00 
 8049a2f:	8d 45 c8             	lea    -0x38(%ebp),%eax
 8049a32:	89 44 24 04          	mov    %eax,0x4(%esp)
 8049a36:	8b 45 e4             	mov    -0x1c(%ebp),%eax
 8049a39:	89 04 24             	mov    %eax,(%esp)
 8049a3c:	e8 ef ef ff ff       	call   8048a30 <connect@plt>
 8049a41:	85 c0                	test   %eax,%eax
 8049a43:	79 2f                	jns    8049a74 <submitr+0x16d>
 8049a45:	8b 45 08             	mov    0x8(%ebp),%eax
 8049a48:	89 44 24 08          	mov    %eax,0x8(%esp)
 8049a4c:	c7 44 24 04 e4 a8 04 	movl   $0x804a8e4,0x4(%esp)
 8049a53:	08 
 8049a54:	8b 45 20             	mov    0x20(%ebp),%eax
 8049a57:	89 04 24             	mov    %eax,(%esp)
 8049a5a:	e8 91 ef ff ff       	call   80489f0 <sprintf@plt>
 8049a5f:	8b 45 e4             	mov    -0x1c(%ebp),%eax
 8049a62:	89 04 24             	mov    %eax,(%esp)
 8049a65:	e8 d6 ef ff ff       	call   8048a40 <close@plt>
 8049a6a:	b8 ff ff ff ff       	mov    $0xffffffff,%eax
 8049a6f:	e9 08 05 00 00       	jmp    8049f7c <submitr+0x675>
 8049a74:	8b 45 1c             	mov    0x1c(%ebp),%eax
 8049a77:	89 04 24             	mov    %eax,(%esp)
 8049a7a:	e8 c1 ee ff ff       	call   8048940 <strlen@plt>
 8049a7f:	89 45 dc             	mov    %eax,-0x24(%ebp)
 8049a82:	8b 45 10             	mov    0x10(%ebp),%eax
 8049a85:	89 04 24             	mov    %eax,(%esp)
 8049a88:	e8 b3 ee ff ff       	call   8048940 <strlen@plt>
 8049a8d:	89 c3                	mov    %eax,%ebx
 8049a8f:	8b 45 14             	mov    0x14(%ebp),%eax
 8049a92:	89 04 24             	mov    %eax,(%esp)
 8049a95:	e8 a6 ee ff ff       	call   8048940 <strlen@plt>
 8049a9a:	01 c3                	add    %eax,%ebx
 8049a9c:	8b 45 18             	mov    0x18(%ebp),%eax
 8049a9f:	89 04 24             	mov    %eax,(%esp)
 8049aa2:	e8 99 ee ff ff       	call   8048940 <strlen@plt>
 8049aa7:	8d 0c 03             	lea    (%ebx,%eax,1),%ecx
 8049aaa:	8b 55 dc             	mov    -0x24(%ebp),%edx
 8049aad:	89 d0                	mov    %edx,%eax
 8049aaf:	01 c0                	add    %eax,%eax
 8049ab1:	01 d0                	add    %edx,%eax
 8049ab3:	01 c8                	add    %ecx,%eax
 8049ab5:	83 e8 80             	sub    $0xffffff80,%eax
 8049ab8:	89 45 d8             	mov    %eax,-0x28(%ebp)
 8049abb:	81 7d d8 00 20 00 00 	cmpl   $0x2000,-0x28(%ebp)
 8049ac2:	76 79                	jbe    8049b3d <submitr+0x236>
 8049ac4:	8b 45 20             	mov    0x20(%ebp),%eax
 8049ac7:	c7 00 45 72 72 6f    	movl   $0x6f727245,(%eax)
 8049acd:	c7 40 04 72 3a 20 52 	movl   $0x52203a72,0x4(%eax)
 8049ad4:	c7 40 08 65 73 75 6c 	movl   $0x6c757365,0x8(%eax)
 8049adb:	c7 40 0c 74 20 73 74 	movl   $0x74732074,0xc(%eax)
 8049ae2:	c7 40 10 72 69 6e 67 	movl   $0x676e6972,0x10(%eax)
 8049ae9:	c7 40 14 20 74 6f 6f 	movl   $0x6f6f7420,0x14(%eax)
 8049af0:	c7 40 18 20 6c 61 72 	movl   $0x72616c20,0x18(%eax)
 8049af7:	c7 40 1c 67 65 2e 20 	movl   $0x202e6567,0x1c(%eax)
 8049afe:	c7 40 20 49 6e 63 72 	movl   $0x72636e49,0x20(%eax)
 8049b05:	c7 40 24 65 61 73 65 	movl   $0x65736165,0x24(%eax)
 8049b0c:	c7 40 28 20 53 55 42 	movl   $0x42555320,0x28(%eax)
 8049b13:	c7 40 2c 4d 49 54 52 	movl   $0x5254494d,0x2c(%eax)
 8049b1a:	c7 40 30 5f 4d 41 58 	movl   $0x58414d5f,0x30(%eax)
 8049b21:	c7 40 34 42 55 46 00 	movl   $0x465542,0x34(%eax)
 8049b28:	8b 45 e4             	mov    -0x1c(%ebp),%eax
 8049b2b:	89 04 24             	mov    %eax,(%esp)
 8049b2e:	e8 0d ef ff ff       	call   8048a40 <close@plt>
 8049b33:	b8 ff ff ff ff       	mov    $0xffffffff,%eax
 8049b38:	e9 3f 04 00 00       	jmp    8049f7c <submitr+0x675>
 8049b3d:	c7 44 24 04 00 20 00 	movl   $0x2000,0x4(%esp)
 8049b44:	00 
 8049b45:	8d 85 bc 9f ff ff    	lea    -0x6044(%ebp),%eax
 8049b4b:	89 04 24             	mov    %eax,(%esp)
 8049b4e:	e8 0d ed ff ff       	call   8048860 <bzero@plt>
 8049b53:	8d 85 bc 9f ff ff    	lea    -0x6044(%ebp),%eax
 8049b59:	89 44 24 04          	mov    %eax,0x4(%esp)
 8049b5d:	8b 45 1c             	mov    0x1c(%ebp),%eax
 8049b60:	89 04 24             	mov    %eax,(%esp)
 8049b63:	e8 64 fc ff ff       	call   80497cc <urlencode>
 8049b68:	85 c0                	test   %eax,%eax
 8049b6a:	0f 89 87 00 00 00    	jns    8049bf7 <submitr+0x2f0>
 8049b70:	8b 45 20             	mov    0x20(%ebp),%eax
 8049b73:	ba 0c a9 04 08       	mov    $0x804a90c,%edx
 8049b78:	bb 43 00 00 00       	mov    $0x43,%ebx
 8049b7d:	89 c1                	mov    %eax,%ecx
 8049b7f:	83 e1 01             	and    $0x1,%ecx
 8049b82:	85 c9                	test   %ecx,%ecx
 8049b84:	74 0e                	je     8049b94 <submitr+0x28d>
 8049b86:	0f b6 0a             	movzbl (%edx),%ecx
 8049b89:	88 08                	mov    %cl,(%eax)
 8049b8b:	83 c0 01             	add    $0x1,%eax
 8049b8e:	83 c2 01             	add    $0x1,%edx
 8049b91:	83 eb 01             	sub    $0x1,%ebx
 8049b94:	89 c1                	mov    %eax,%ecx
 8049b96:	83 e1 02             	and    $0x2,%ecx
 8049b99:	85 c9                	test   %ecx,%ecx
 8049b9b:	74 0f                	je     8049bac <submitr+0x2a5>
 8049b9d:	0f b7 0a             	movzwl (%edx),%ecx
 8049ba0:	66 89 08             	mov    %cx,(%eax)
 8049ba3:	83 c0 02             	add    $0x2,%eax
 8049ba6:	83 c2 02             	add    $0x2,%edx
 8049ba9:	83 eb 02             	sub    $0x2,%ebx
 8049bac:	89 d9                	mov    %ebx,%ecx
 8049bae:	c1 e9 02             	shr    $0x2,%ecx
 8049bb1:	89 c7                	mov    %eax,%edi
 8049bb3:	89 d6                	mov    %edx,%esi
 8049bb5:	f3 a5                	rep movsl %ds:(%esi),%es:(%edi)
 8049bb7:	89 f2                	mov    %esi,%edx
 8049bb9:	89 f8                	mov    %edi,%eax
 8049bbb:	b9 00 00 00 00       	mov    $0x0,%ecx
 8049bc0:	89 de                	mov    %ebx,%esi
 8049bc2:	83 e6 02             	and    $0x2,%esi
 8049bc5:	85 f6                	test   %esi,%esi
 8049bc7:	74 0b                	je     8049bd4 <submitr+0x2cd>
 8049bc9:	0f b7 34 0a          	movzwl (%edx,%ecx,1),%esi
 8049bcd:	66 89 34 08          	mov    %si,(%eax,%ecx,1)
 8049bd1:	83 c1 02             	add    $0x2,%ecx
 8049bd4:	83 e3 01             	and    $0x1,%ebx
 8049bd7:	85 db                	test   %ebx,%ebx
 8049bd9:	74 07                	je     8049be2 <submitr+0x2db>
 8049bdb:	0f b6 14 0a          	movzbl (%edx,%ecx,1),%edx
 8049bdf:	88 14 08             	mov    %dl,(%eax,%ecx,1)
 8049be2:	8b 45 e4             	mov    -0x1c(%ebp),%eax
 8049be5:	89 04 24             	mov    %eax,(%esp)
 8049be8:	e8 53 ee ff ff       	call   8048a40 <close@plt>
 8049bed:	b8 ff ff ff ff       	mov    $0xffffffff,%eax
 8049bf2:	e9 85 03 00 00       	jmp    8049f7c <submitr+0x675>
 8049bf7:	8d 85 bc 9f ff ff    	lea    -0x6044(%ebp),%eax
 8049bfd:	89 44 24 14          	mov    %eax,0x14(%esp)
 8049c01:	8b 45 18             	mov    0x18(%ebp),%eax
 8049c04:	89 44 24 10          	mov    %eax,0x10(%esp)
 8049c08:	8b 45 14             	mov    0x14(%ebp),%eax
 8049c0b:	89 44 24 0c          	mov    %eax,0xc(%esp)
 8049c0f:	8b 45 10             	mov    0x10(%ebp),%eax
 8049c12:	89 44 24 08          	mov    %eax,0x8(%esp)
 8049c16:	c7 44 24 04 50 a9 04 	movl   $0x804a950,0x4(%esp)
 8049c1d:	08 
 8049c1e:	8d 85 bc bf ff ff    	lea    -0x4044(%ebp),%eax
 8049c24:	89 04 24             	mov    %eax,(%esp)
 8049c27:	e8 c4 ed ff ff       	call   80489f0 <sprintf@plt>
 8049c2c:	8d 85 bc bf ff ff    	lea    -0x4044(%ebp),%eax
 8049c32:	89 04 24             	mov    %eax,(%esp)
 8049c35:	e8 06 ed ff ff       	call   8048940 <strlen@plt>
 8049c3a:	89 44 24 08          	mov    %eax,0x8(%esp)
 8049c3e:	8d 85 bc bf ff ff    	lea    -0x4044(%ebp),%eax
 8049c44:	89 44 24 04          	mov    %eax,0x4(%esp)
 8049c48:	8b 45 e4             	mov    -0x1c(%ebp),%eax
 8049c4b:	89 04 24             	mov    %eax,(%esp)
 8049c4e:	e8 10 fb ff ff       	call   8049763 <rio_writen>
 8049c53:	85 c0                	test   %eax,%eax
 8049c55:	79 64                	jns    8049cbb <submitr+0x3b4>
 8049c57:	8b 45 20             	mov    0x20(%ebp),%eax
 8049c5a:	c7 00 45 72 72 6f    	movl   $0x6f727245,(%eax)
 8049c60:	c7 40 04 72 3a 20 43 	movl   $0x43203a72,0x4(%eax)
 8049c67:	c7 40 08 6c 69 65 6e 	movl   $0x6e65696c,0x8(%eax)
 8049c6e:	c7 40 0c 74 20 75 6e 	movl   $0x6e752074,0xc(%eax)
 8049c75:	c7 40 10 61 62 6c 65 	movl   $0x656c6261,0x10(%eax)
 8049c7c:	c7 40 14 20 74 6f 20 	movl   $0x206f7420,0x14(%eax)
 8049c83:	c7 40 18 77 72 69 74 	movl   $0x74697277,0x18(%eax)
 8049c8a:	c7 40 1c 65 20 74 6f 	movl   $0x6f742065,0x1c(%eax)
 8049c91:	c7 40 20 20 74 68 65 	movl   $0x65687420,0x20(%eax)
 8049c98:	c7 40 24 20 73 65 72 	movl   $0x72657320,0x24(%eax)
 8049c9f:	c7 40 28 76 65 72 00 	movl   $0x726576,0x28(%eax)
 8049ca6:	8b 45 e4             	mov    -0x1c(%ebp),%eax
 8049ca9:	89 04 24             	mov    %eax,(%esp)
 8049cac:	e8 8f ed ff ff       	call   8048a40 <close@plt>
 8049cb1:	b8 ff ff ff ff       	mov    $0xffffffff,%eax
 8049cb6:	e9 c1 02 00 00       	jmp    8049f7c <submitr+0x675>
 8049cbb:	8b 45 e4             	mov    -0x1c(%ebp),%eax
 8049cbe:	89 44 24 04          	mov    %eax,0x4(%esp)
 8049cc2:	8d 85 bc df ff ff    	lea    -0x2044(%ebp),%eax
 8049cc8:	89 04 24             	mov    %eax,(%esp)
 8049ccb:	e8 1b f9 ff ff       	call   80495eb <rio_readinitb>
 8049cd0:	c7 44 24 08 00 20 00 	movl   $0x2000,0x8(%esp)
 8049cd7:	00 
 8049cd8:	8d 85 bc bf ff ff    	lea    -0x4044(%ebp),%eax
 8049cde:	89 44 24 04          	mov    %eax,0x4(%esp)
 8049ce2:	8d 85 bc df ff ff    	lea    -0x2044(%ebp),%eax
 8049ce8:	89 04 24             	mov    %eax,(%esp)
 8049ceb:	e8 ef f9 ff ff       	call   80496df <rio_readlineb>
 8049cf0:	85 c0                	test   %eax,%eax
 8049cf2:	7f 78                	jg     8049d6c <submitr+0x465>
 8049cf4:	8b 45 20             	mov    0x20(%ebp),%eax
 8049cf7:	c7 00 45 72 72 6f    	movl   $0x6f727245,(%eax)
 8049cfd:	c7 40 04 72 3a 20 43 	movl   $0x43203a72,0x4(%eax)
 8049d04:	c7 40 08 6c 69 65 6e 	movl   $0x6e65696c,0x8(%eax)
 8049d0b:	c7 40 0c 74 20 75 6e 	movl   $0x6e752074,0xc(%eax)
 8049d12:	c7 40 10 61 62 6c 65 	movl   $0x656c6261,0x10(%eax)
 8049d19:	c7 40 14 20 74 6f 20 	movl   $0x206f7420,0x14(%eax)
 8049d20:	c7 40 18 72 65 61 64 	movl   $0x64616572,0x18(%eax)
 8049d27:	c7 40 1c 20 66 69 72 	movl   $0x72696620,0x1c(%eax)
 8049d2e:	c7 40 20 73 74 20 68 	movl   $0x68207473,0x20(%eax)
 8049d35:	c7 40 24 65 61 64 65 	movl   $0x65646165,0x24(%eax)
 8049d3c:	c7 40 28 72 20 66 72 	movl   $0x72662072,0x28(%eax)
 8049d43:	c7 40 2c 6f 6d 20 73 	movl   $0x73206d6f,0x2c(%eax)
 8049d4a:	c7 40 30 65 72 76 65 	movl   $0x65767265,0x30(%eax)
 8049d51:	66 c7 40 34 72 00    	movw   $0x72,0x34(%eax)
 8049d57:	8b 45 e4             	mov    -0x1c(%ebp),%eax
 8049d5a:	89 04 24             	mov    %eax,(%esp)
 8049d5d:	e8 de ec ff ff       	call   8048a40 <close@plt>
 8049d62:	b8 ff ff ff ff       	mov    $0xffffffff,%eax
 8049d67:	e9 10 02 00 00       	jmp    8049f7c <submitr+0x675>
 8049d6c:	8d 85 b8 5f ff ff    	lea    -0xa048(%ebp),%eax
 8049d72:	89 44 24 10          	mov    %eax,0x10(%esp)
 8049d76:	8d 85 b8 7f ff ff    	lea    -0x8048(%ebp),%eax
 8049d7c:	89 44 24 0c          	mov    %eax,0xc(%esp)
 8049d80:	8d 85 bc 7f ff ff    	lea    -0x8044(%ebp),%eax
 8049d86:	89 44 24 08          	mov    %eax,0x8(%esp)
 8049d8a:	c7 44 24 04 9a a9 04 	movl   $0x804a99a,0x4(%esp)
 8049d91:	08 
 8049d92:	8d 85 bc bf ff ff    	lea    -0x4044(%ebp),%eax
 8049d98:	89 04 24             	mov    %eax,(%esp)
 8049d9b:	e8 00 ec ff ff       	call   80489a0 <__isoc99_sscanf@plt>
 8049da0:	8b 85 b8 7f ff ff    	mov    -0x8048(%ebp),%eax
 8049da6:	3d c8 00 00 00       	cmp    $0xc8,%eax
 8049dab:	74 3c                	je     8049de9 <submitr+0x4e2>
 8049dad:	8b 85 b8 7f ff ff    	mov    -0x8048(%ebp),%eax
 8049db3:	8d 95 b8 5f ff ff    	lea    -0xa048(%ebp),%edx
 8049db9:	89 54 24 0c          	mov    %edx,0xc(%esp)
 8049dbd:	89 44 24 08          	mov    %eax,0x8(%esp)
 8049dc1:	c7 44 24 04 ac a9 04 	movl   $0x804a9ac,0x4(%esp)
 8049dc8:	08 
 8049dc9:	8b 45 20             	mov    0x20(%ebp),%eax
 8049dcc:	89 04 24             	mov    %eax,(%esp)
 8049dcf:	e8 1c ec ff ff       	call   80489f0 <sprintf@plt>
 8049dd4:	8b 45 e4             	mov    -0x1c(%ebp),%eax
 8049dd7:	89 04 24             	mov    %eax,(%esp)
 8049dda:	e8 61 ec ff ff       	call   8048a40 <close@plt>
 8049ddf:	b8 ff ff ff ff       	mov    $0xffffffff,%eax
 8049de4:	e9 93 01 00 00       	jmp    8049f7c <submitr+0x675>
 8049de9:	e9 93 00 00 00       	jmp    8049e81 <submitr+0x57a>
 8049dee:	c7 44 24 08 00 20 00 	movl   $0x2000,0x8(%esp)
 8049df5:	00 
 8049df6:	8d 85 bc bf ff ff    	lea    -0x4044(%ebp),%eax
 8049dfc:	89 44 24 04          	mov    %eax,0x4(%esp)
 8049e00:	8d 85 bc df ff ff    	lea    -0x2044(%ebp),%eax
 8049e06:	89 04 24             	mov    %eax,(%esp)
 8049e09:	e8 d1 f8 ff ff       	call   80496df <rio_readlineb>
 8049e0e:	85 c0                	test   %eax,%eax
 8049e10:	7f 6f                	jg     8049e81 <submitr+0x57a>
 8049e12:	8b 45 20             	mov    0x20(%ebp),%eax
 8049e15:	c7 00 45 72 72 6f    	movl   $0x6f727245,(%eax)
 8049e1b:	c7 40 04 72 3a 20 43 	movl   $0x43203a72,0x4(%eax)
 8049e22:	c7 40 08 6c 69 65 6e 	movl   $0x6e65696c,0x8(%eax)
 8049e29:	c7 40 0c 74 20 75 6e 	movl   $0x6e752074,0xc(%eax)
 8049e30:	c7 40 10 61 62 6c 65 	movl   $0x656c6261,0x10(%eax)
 8049e37:	c7 40 14 20 74 6f 20 	movl   $0x206f7420,0x14(%eax)
 8049e3e:	c7 40 18 72 65 61 64 	movl   $0x64616572,0x18(%eax)
 8049e45:	c7 40 1c 20 68 65 61 	movl   $0x61656820,0x1c(%eax)
 8049e4c:	c7 40 20 64 65 72 73 	movl   $0x73726564,0x20(%eax)
 8049e53:	c7 40 24 20 66 72 6f 	movl   $0x6f726620,0x24(%eax)
 8049e5a:	c7 40 28 6d 20 73 65 	movl   $0x6573206d,0x28(%eax)
 8049e61:	c7 40 2c 72 76 65 72 	movl   $0x72657672,0x2c(%eax)
 8049e68:	c6 40 30 00          	movb   $0x0,0x30(%eax)
 8049e6c:	8b 45 e4             	mov    -0x1c(%ebp),%eax
 8049e6f:	89 04 24             	mov    %eax,(%esp)
 8049e72:	e8 c9 eb ff ff       	call   8048a40 <close@plt>
 8049e77:	b8 ff ff ff ff       	mov    $0xffffffff,%eax
 8049e7c:	e9 fb 00 00 00       	jmp    8049f7c <submitr+0x675>
 8049e81:	c7 44 24 04 d9 a9 04 	movl   $0x804a9d9,0x4(%esp)
 8049e88:	08 
 8049e89:	8d 85 bc bf ff ff    	lea    -0x4044(%ebp),%eax
 8049e8f:	89 04 24             	mov    %eax,(%esp)
 8049e92:	e8 69 e9 ff ff       	call   8048800 <strcmp@plt>
 8049e97:	85 c0                	test   %eax,%eax
 8049e99:	0f 85 4f ff ff ff    	jne    8049dee <submitr+0x4e7>
 8049e9f:	c7 44 24 08 00 20 00 	movl   $0x2000,0x8(%esp)
 8049ea6:	00 
 8049ea7:	8d 85 bc bf ff ff    	lea    -0x4044(%ebp),%eax
 8049ead:	89 44 24 04          	mov    %eax,0x4(%esp)
 8049eb1:	8d 85 bc df ff ff    	lea    -0x2044(%ebp),%eax
 8049eb7:	89 04 24             	mov    %eax,(%esp)
 8049eba:	e8 20 f8 ff ff       	call   80496df <rio_readlineb>
 8049ebf:	85 c0                	test   %eax,%eax
 8049ec1:	7f 76                	jg     8049f39 <submitr+0x632>
 8049ec3:	8b 45 20             	mov    0x20(%ebp),%eax
 8049ec6:	c7 00 45 72 72 6f    	movl   $0x6f727245,(%eax)
 8049ecc:	c7 40 04 72 3a 20 43 	movl   $0x43203a72,0x4(%eax)
 8049ed3:	c7 40 08 6c 69 65 6e 	movl   $0x6e65696c,0x8(%eax)
 8049eda:	c7 40 0c 74 20 75 6e 	movl   $0x6e752074,0xc(%eax)
 8049ee1:	c7 40 10 61 62 6c 65 	movl   $0x656c6261,0x10(%eax)
 8049ee8:	c7 40 14 20 74 6f 20 	movl   $0x206f7420,0x14(%eax)
 8049eef:	c7 40 18 72 65 61 64 	movl   $0x64616572,0x18(%eax)
 8049ef6:	c7 40 1c 20 73 74 61 	movl   $0x61747320,0x1c(%eax)
 8049efd:	c7 40 20 74 75 73 20 	movl   $0x20737574,0x20(%eax)
 8049f04:	c7 40 24 6d 65 73 73 	movl   $0x7373656d,0x24(%eax)
 8049f0b:	c7 40 28 61 67 65 20 	movl   $0x20656761,0x28(%eax)
 8049f12:	c7 40 2c 66 72 6f 6d 	movl   $0x6d6f7266,0x2c(%eax)
 8049f19:	c7 40 30 20 73 65 72 	movl   $0x72657320,0x30(%eax)
 8049f20:	c7 40 34 76 65 72 00 	movl   $0x726576,0x34(%eax)
 8049f27:	8b 45 e4             	mov    -0x1c(%ebp),%eax
 8049f2a:	89 04 24             	mov    %eax,(%esp)
 8049f2d:	e8 0e eb ff ff       	call   8048a40 <close@plt>
 8049f32:	b8 ff ff ff ff       	mov    $0xffffffff,%eax
 8049f37:	eb 43                	jmp    8049f7c <submitr+0x675>
 8049f39:	8d 85 bc bf ff ff    	lea    -0x4044(%ebp),%eax
 8049f3f:	89 44 24 04          	mov    %eax,0x4(%esp)
 8049f43:	8b 45 20             	mov    0x20(%ebp),%eax
 8049f46:	89 04 24             	mov    %eax,(%esp)
 8049f49:	e8 82 e9 ff ff       	call   80488d0 <strcpy@plt>
 8049f4e:	8b 45 e4             	mov    -0x1c(%ebp),%eax
 8049f51:	89 04 24             	mov    %eax,(%esp)
 8049f54:	e8 e7 ea ff ff       	call   8048a40 <close@plt>
 8049f59:	c7 44 24 04 dc a9 04 	movl   $0x804a9dc,0x4(%esp)
 8049f60:	08 
 8049f61:	8b 45 20             	mov    0x20(%ebp),%eax
 8049f64:	89 04 24             	mov    %eax,(%esp)
 8049f67:	e8 94 e8 ff ff       	call   8048800 <strcmp@plt>
 8049f6c:	85 c0                	test   %eax,%eax
 8049f6e:	75 07                	jne    8049f77 <submitr+0x670>
 8049f70:	b8 00 00 00 00       	mov    $0x0,%eax
 8049f75:	eb 05                	jmp    8049f7c <submitr+0x675>
 8049f77:	b8 ff ff ff ff       	mov    $0xffffffff,%eax
 8049f7c:	81 c4 5c a0 00 00    	add    $0xa05c,%esp
 8049f82:	5b                   	pop    %ebx
 8049f83:	5e                   	pop    %esi
 8049f84:	5f                   	pop    %edi
 8049f85:	5d                   	pop    %ebp
 8049f86:	c3                   	ret    

08049f87 <init_timeout>:
 8049f87:	55                   	push   %ebp
 8049f88:	89 e5                	mov    %esp,%ebp
 8049f8a:	83 ec 18             	sub    $0x18,%esp
 8049f8d:	83 7d 08 00          	cmpl   $0x0,0x8(%ebp)
 8049f91:	75 02                	jne    8049f95 <init_timeout+0xe>
 8049f93:	eb 2c                	jmp    8049fc1 <init_timeout+0x3a>
 8049f95:	83 7d 08 00          	cmpl   $0x0,0x8(%ebp)
 8049f99:	79 07                	jns    8049fa2 <init_timeout+0x1b>
 8049f9b:	c7 45 08 00 00 00 00 	movl   $0x0,0x8(%ebp)
 8049fa2:	c7 44 24 04 bc 95 04 	movl   $0x80495bc,0x4(%esp)
 8049fa9:	08 
 8049faa:	c7 04 24 0e 00 00 00 	movl   $0xe,(%esp)
 8049fb1:	e8 ba e8 ff ff       	call   8048870 <signal@plt>
 8049fb6:	8b 45 08             	mov    0x8(%ebp),%eax
 8049fb9:	89 04 24             	mov    %eax,(%esp)
 8049fbc:	e8 bf e8 ff ff       	call   8048880 <alarm@plt>
 8049fc1:	c9                   	leave  
 8049fc2:	c3                   	ret    

08049fc3 <init_driver>:
 8049fc3:	55                   	push   %ebp
 8049fc4:	89 e5                	mov    %esp,%ebp
 8049fc6:	83 ec 38             	sub    $0x38,%esp
 8049fc9:	c7 45 f4 df a9 04 08 	movl   $0x804a9df,-0xc(%ebp)
 8049fd0:	c7 45 f0 26 47 00 00 	movl   $0x4726,-0x10(%ebp)
 8049fd7:	c7 44 24 04 01 00 00 	movl   $0x1,0x4(%esp)
 8049fde:	00 
 8049fdf:	c7 04 24 0d 00 00 00 	movl   $0xd,(%esp)
 8049fe6:	e8 85 e8 ff ff       	call   8048870 <signal@plt>
 8049feb:	c7 44 24 04 01 00 00 	movl   $0x1,0x4(%esp)
 8049ff2:	00 
 8049ff3:	c7 04 24 1d 00 00 00 	movl   $0x1d,(%esp)
 8049ffa:	e8 71 e8 ff ff       	call   8048870 <signal@plt>
 8049fff:	c7 44 24 04 01 00 00 	movl   $0x1,0x4(%esp)
 804a006:	00 
 804a007:	c7 04 24 1d 00 00 00 	movl   $0x1d,(%esp)
 804a00e:	e8 5d e8 ff ff       	call   8048870 <signal@plt>
 804a013:	c7 44 24 08 00 00 00 	movl   $0x0,0x8(%esp)
 804a01a:	00 
 804a01b:	c7 44 24 04 01 00 00 	movl   $0x1,0x4(%esp)
 804a022:	00 
 804a023:	c7 04 24 02 00 00 00 	movl   $0x2,(%esp)
 804a02a:	e8 d1 e9 ff ff       	call   8048a00 <socket@plt>
 804a02f:	89 45 ec             	mov    %eax,-0x14(%ebp)
 804a032:	83 7d ec 00          	cmpl   $0x0,-0x14(%ebp)
 804a036:	79 51                	jns    804a089 <init_driver+0xc6>
 804a038:	8b 45 08             	mov    0x8(%ebp),%eax
 804a03b:	c7 00 45 72 72 6f    	movl   $0x6f727245,(%eax)
 804a041:	c7 40 04 72 3a 20 43 	movl   $0x43203a72,0x4(%eax)
 804a048:	c7 40 08 6c 69 65 6e 	movl   $0x6e65696c,0x8(%eax)
 804a04f:	c7 40 0c 74 20 75 6e 	movl   $0x6e752074,0xc(%eax)
 804a056:	c7 40 10 61 62 6c 65 	movl   $0x656c6261,0x10(%eax)
 804a05d:	c7 40 14 20 74 6f 20 	movl   $0x206f7420,0x14(%eax)
 804a064:	c7 40 18 63 72 65 61 	movl   $0x61657263,0x18(%eax)
 804a06b:	c7 40 1c 74 65 20 73 	movl   $0x73206574,0x1c(%eax)
 804a072:	c7 40 20 6f 63 6b 65 	movl   $0x656b636f,0x20(%eax)
 804a079:	66 c7 40 24 74 00    	movw   $0x74,0x24(%eax)
 804a07f:	b8 ff ff ff ff       	mov    $0xffffffff,%eax
 804a084:	e9 01 01 00 00       	jmp    804a18a <init_driver+0x1c7>
 804a089:	8b 45 f4             	mov    -0xc(%ebp),%eax
 804a08c:	89 04 24             	mov    %eax,(%esp)
 804a08f:	e8 8c e9 ff ff       	call   8048a20 <gethostbyname@plt>
 804a094:	89 45 e8             	mov    %eax,-0x18(%ebp)
 804a097:	83 7d e8 00          	cmpl   $0x0,-0x18(%ebp)
 804a09b:	75 2f                	jne    804a0cc <init_driver+0x109>
 804a09d:	8b 45 f4             	mov    -0xc(%ebp),%eax
 804a0a0:	89 44 24 08          	mov    %eax,0x8(%esp)
 804a0a4:	c7 44 24 04 b8 a8 04 	movl   $0x804a8b8,0x4(%esp)
 804a0ab:	08 
 804a0ac:	8b 45 08             	mov    0x8(%ebp),%eax
 804a0af:	89 04 24             	mov    %eax,(%esp)
 804a0b2:	e8 39 e9 ff ff       	call   80489f0 <sprintf@plt>
 804a0b7:	8b 45 ec             	mov    -0x14(%ebp),%eax
 804a0ba:	89 04 24             	mov    %eax,(%esp)
 804a0bd:	e8 7e e9 ff ff       	call   8048a40 <close@plt>
 804a0c2:	b8 ff ff ff ff       	mov    $0xffffffff,%eax
 804a0c7:	e9 be 00 00 00       	jmp    804a18a <init_driver+0x1c7>
 804a0cc:	c7 44 24 04 10 00 00 	movl   $0x10,0x4(%esp)
 804a0d3:	00 
 804a0d4:	8d 45 d8             	lea    -0x28(%ebp),%eax
 804a0d7:	89 04 24             	mov    %eax,(%esp)
 804a0da:	e8 81 e7 ff ff       	call   8048860 <bzero@plt>
 804a0df:	66 c7 45 d8 02 00    	movw   $0x2,-0x28(%ebp)
 804a0e5:	8b 45 e8             	mov    -0x18(%ebp),%eax
 804a0e8:	8b 40 0c             	mov    0xc(%eax),%eax
 804a0eb:	89 c2                	mov    %eax,%edx
 804a0ed:	8b 45 e8             	mov    -0x18(%ebp),%eax
 804a0f0:	8b 40 10             	mov    0x10(%eax),%eax
 804a0f3:	8b 00                	mov    (%eax),%eax
 804a0f5:	89 54 24 08          	mov    %edx,0x8(%esp)
 804a0f9:	8d 55 d8             	lea    -0x28(%ebp),%edx
 804a0fc:	83 c2 04             	add    $0x4,%edx
 804a0ff:	89 54 24 04          	mov    %edx,0x4(%esp)
 804a103:	89 04 24             	mov    %eax,(%esp)
 804a106:	e8 b5 e7 ff ff       	call   80488c0 <bcopy@plt>
 804a10b:	8b 45 f0             	mov    -0x10(%ebp),%eax
 804a10e:	0f b7 c0             	movzwl %ax,%eax
 804a111:	89 04 24             	mov    %eax,(%esp)
 804a114:	e8 87 e7 ff ff       	call   80488a0 <htons@plt>
 804a119:	66 89 45 da          	mov    %ax,-0x26(%ebp)
 804a11d:	c7 44 24 08 10 00 00 	movl   $0x10,0x8(%esp)
 804a124:	00 
 804a125:	8d 45 d8             	lea    -0x28(%ebp),%eax
 804a128:	89 44 24 04          	mov    %eax,0x4(%esp)
 804a12c:	8b 45 ec             	mov    -0x14(%ebp),%eax
 804a12f:	89 04 24             	mov    %eax,(%esp)
 804a132:	e8 f9 e8 ff ff       	call   8048a30 <connect@plt>
 804a137:	85 c0                	test   %eax,%eax
 804a139:	79 33                	jns    804a16e <init_driver+0x1ab>
 804a13b:	8b 45 f0             	mov    -0x10(%ebp),%eax
 804a13e:	89 44 24 0c          	mov    %eax,0xc(%esp)
 804a142:	8b 45 f4             	mov    -0xc(%ebp),%eax
 804a145:	89 44 24 08          	mov    %eax,0x8(%esp)
 804a149:	c7 44 24 04 fc a9 04 	movl   $0x804a9fc,0x4(%esp)
 804a150:	08 
 804a151:	8b 45 08             	mov    0x8(%ebp),%eax
 804a154:	89 04 24             	mov    %eax,(%esp)
 804a157:	e8 94 e8 ff ff       	call   80489f0 <sprintf@plt>
 804a15c:	8b 45 ec             	mov    -0x14(%ebp),%eax
 804a15f:	89 04 24             	mov    %eax,(%esp)
 804a162:	e8 d9 e8 ff ff       	call   8048a40 <close@plt>
 804a167:	b8 ff ff ff ff       	mov    $0xffffffff,%eax
 804a16c:	eb 1c                	jmp    804a18a <init_driver+0x1c7>
 804a16e:	8b 45 ec             	mov    -0x14(%ebp),%eax
 804a171:	89 04 24             	mov    %eax,(%esp)
 804a174:	e8 c7 e8 ff ff       	call   8048a40 <close@plt>
 804a179:	8b 45 08             	mov    0x8(%ebp),%eax
 804a17c:	66 c7 00 4f 4b       	movw   $0x4b4f,(%eax)
 804a181:	c6 40 02 00          	movb   $0x0,0x2(%eax)
 804a185:	b8 00 00 00 00       	mov    $0x0,%eax
 804a18a:	c9                   	leave  
 804a18b:	c3                   	ret    

0804a18c <driver_post>:
 804a18c:	55                   	push   %ebp
 804a18d:	89 e5                	mov    %esp,%ebp
 804a18f:	83 ec 38             	sub    $0x38,%esp
 804a192:	83 7d 10 00          	cmpl   $0x0,0x10(%ebp)
 804a196:	74 26                	je     804a1be <driver_post+0x32>
 804a198:	8b 45 0c             	mov    0xc(%ebp),%eax
 804a19b:	89 44 24 04          	mov    %eax,0x4(%esp)
 804a19f:	c7 04 24 25 aa 04 08 	movl   $0x804aa25,(%esp)
 804a1a6:	e8 85 e6 ff ff       	call   8048830 <printf@plt>
 804a1ab:	8b 45 14             	mov    0x14(%ebp),%eax
 804a1ae:	66 c7 00 4f 4b       	movw   $0x4b4f,(%eax)
 804a1b3:	c6 40 02 00          	movb   $0x0,0x2(%eax)
 804a1b7:	b8 00 00 00 00       	mov    $0x0,%eax
 804a1bc:	eb 62                	jmp    804a220 <driver_post+0x94>
 804a1be:	83 7d 08 00          	cmpl   $0x0,0x8(%ebp)
 804a1c2:	74 4b                	je     804a20f <driver_post+0x83>
 804a1c4:	8b 45 08             	mov    0x8(%ebp),%eax
 804a1c7:	0f b6 00             	movzbl (%eax),%eax
 804a1ca:	84 c0                	test   %al,%al
 804a1cc:	74 41                	je     804a20f <driver_post+0x83>
 804a1ce:	8b 45 14             	mov    0x14(%ebp),%eax
 804a1d1:	89 44 24 18          	mov    %eax,0x18(%esp)
 804a1d5:	8b 45 0c             	mov    0xc(%ebp),%eax
 804a1d8:	89 44 24 14          	mov    %eax,0x14(%esp)
 804a1dc:	c7 44 24 10 3c aa 04 	movl   $0x804aa3c,0x10(%esp)
 804a1e3:	08 
 804a1e4:	8b 45 08             	mov    0x8(%ebp),%eax
 804a1e7:	89 44 24 0c          	mov    %eax,0xc(%esp)
 804a1eb:	c7 44 24 08 43 aa 04 	movl   $0x804aa43,0x8(%esp)
 804a1f2:	08 
 804a1f3:	c7 44 24 04 26 47 00 	movl   $0x4726,0x4(%esp)
 804a1fa:	00 
 804a1fb:	c7 04 24 df a9 04 08 	movl   $0x804a9df,(%esp)
 804a202:	e8 00 f7 ff ff       	call   8049907 <submitr>
 804a207:	89 45 f4             	mov    %eax,-0xc(%ebp)
 804a20a:	8b 45 f4             	mov    -0xc(%ebp),%eax
 804a20d:	eb 11                	jmp    804a220 <driver_post+0x94>
 804a20f:	8b 45 14             	mov    0x14(%ebp),%eax
 804a212:	66 c7 00 4f 4b       	movw   $0x4b4f,(%eax)
 804a217:	c6 40 02 00          	movb   $0x0,0x2(%eax)
 804a21b:	b8 00 00 00 00       	mov    $0x0,%eax
 804a220:	c9                   	leave  
 804a221:	c3                   	ret    
 804a222:	66 90                	xchg   %ax,%ax

0804a224 <hash>:
 804a224:	55                   	push   %ebp
 804a225:	89 e5                	mov    %esp,%ebp
 804a227:	83 ec 10             	sub    $0x10,%esp
 804a22a:	c7 45 fc 00 00 00 00 	movl   $0x0,-0x4(%ebp)
 804a231:	eb 1a                	jmp    804a24d <hash+0x29>
 804a233:	8b 45 fc             	mov    -0x4(%ebp),%eax
 804a236:	6b c8 67             	imul   $0x67,%eax,%ecx
 804a239:	8b 45 08             	mov    0x8(%ebp),%eax
 804a23c:	8d 50 01             	lea    0x1(%eax),%edx
 804a23f:	89 55 08             	mov    %edx,0x8(%ebp)
 804a242:	0f b6 00             	movzbl (%eax),%eax
 804a245:	0f be c0             	movsbl %al,%eax
 804a248:	01 c8                	add    %ecx,%eax
 804a24a:	89 45 fc             	mov    %eax,-0x4(%ebp)
 804a24d:	8b 45 08             	mov    0x8(%ebp),%eax
 804a250:	0f b6 00             	movzbl (%eax),%eax
 804a253:	84 c0                	test   %al,%al
 804a255:	75 dc                	jne    804a233 <hash+0xf>
 804a257:	8b 45 fc             	mov    -0x4(%ebp),%eax
 804a25a:	c9                   	leave  
 804a25b:	c3                   	ret    

0804a25c <check>:
 804a25c:	55                   	push   %ebp
 804a25d:	89 e5                	mov    %esp,%ebp
 804a25f:	83 ec 10             	sub    $0x10,%esp
 804a262:	8b 45 08             	mov    0x8(%ebp),%eax
 804a265:	c1 e8 1c             	shr    $0x1c,%eax
 804a268:	85 c0                	test   %eax,%eax
 804a26a:	75 07                	jne    804a273 <check+0x17>
 804a26c:	b8 00 00 00 00       	mov    $0x0,%eax
 804a271:	eb 33                	jmp    804a2a6 <check+0x4a>
 804a273:	c7 45 fc 00 00 00 00 	movl   $0x0,-0x4(%ebp)
 804a27a:	eb 1f                	jmp    804a29b <check+0x3f>
 804a27c:	8b 45 fc             	mov    -0x4(%ebp),%eax
 804a27f:	8b 55 08             	mov    0x8(%ebp),%edx
 804a282:	89 c1                	mov    %eax,%ecx
 804a284:	d3 ea                	shr    %cl,%edx
 804a286:	89 d0                	mov    %edx,%eax
 804a288:	0f b6 c0             	movzbl %al,%eax
 804a28b:	83 f8 0a             	cmp    $0xa,%eax
 804a28e:	75 07                	jne    804a297 <check+0x3b>
 804a290:	b8 00 00 00 00       	mov    $0x0,%eax
 804a295:	eb 0f                	jmp    804a2a6 <check+0x4a>
 804a297:	83 45 fc 08          	addl   $0x8,-0x4(%ebp)
 804a29b:	83 7d fc 1f          	cmpl   $0x1f,-0x4(%ebp)
 804a29f:	7e db                	jle    804a27c <check+0x20>
 804a2a1:	b8 01 00 00 00       	mov    $0x1,%eax
 804a2a6:	c9                   	leave  
 804a2a7:	c3                   	ret    

0804a2a8 <gencookie>:
 804a2a8:	55                   	push   %ebp
 804a2a9:	89 e5                	mov    %esp,%ebp
 804a2ab:	83 ec 28             	sub    $0x28,%esp
 804a2ae:	8b 45 08             	mov    0x8(%ebp),%eax
 804a2b1:	89 04 24             	mov    %eax,(%esp)
 804a2b4:	e8 6b ff ff ff       	call   804a224 <hash>
 804a2b9:	89 04 24             	mov    %eax,(%esp)
 804a2bc:	e8 5f e6 ff ff       	call   8048920 <srand@plt>
 804a2c1:	e8 0a e7 ff ff       	call   80489d0 <rand@plt>
 804a2c6:	89 45 f4             	mov    %eax,-0xc(%ebp)
 804a2c9:	8b 45 f4             	mov    -0xc(%ebp),%eax
 804a2cc:	89 04 24             	mov    %eax,(%esp)
 804a2cf:	e8 88 ff ff ff       	call   804a25c <check>
 804a2d4:	85 c0                	test   %eax,%eax
 804a2d6:	74 e9                	je     804a2c1 <gencookie+0x19>
 804a2d8:	8b 45 f4             	mov    -0xc(%ebp),%eax
 804a2db:	c9                   	leave  
 804a2dc:	c3                   	ret    
 804a2dd:	66 90                	xchg   %ax,%ax
 804a2df:	90                   	nop

0804a2e0 <__libc_csu_init>:
 804a2e0:	55                   	push   %ebp
 804a2e1:	57                   	push   %edi
 804a2e2:	31 ff                	xor    %edi,%edi
 804a2e4:	56                   	push   %esi
 804a2e5:	53                   	push   %ebx
 804a2e6:	e8 a5 e7 ff ff       	call   8048a90 <__x86.get_pc_thunk.bx>
 804a2eb:	81 c3 15 1d 00 00    	add    $0x1d15,%ebx
 804a2f1:	83 ec 1c             	sub    $0x1c,%esp
 804a2f4:	8b 6c 24 30          	mov    0x30(%esp),%ebp
 804a2f8:	8d b3 0c ff ff ff    	lea    -0xf4(%ebx),%esi
 804a2fe:	e8 bd e4 ff ff       	call   80487c0 <_init>
 804a303:	8d 83 08 ff ff ff    	lea    -0xf8(%ebx),%eax
 804a309:	29 c6                	sub    %eax,%esi
 804a30b:	c1 fe 02             	sar    $0x2,%esi
 804a30e:	85 f6                	test   %esi,%esi
 804a310:	74 27                	je     804a339 <__libc_csu_init+0x59>
 804a312:	8d b6 00 00 00 00    	lea    0x0(%esi),%esi
 804a318:	8b 44 24 38          	mov    0x38(%esp),%eax
 804a31c:	89 2c 24             	mov    %ebp,(%esp)
 804a31f:	89 44 24 08          	mov    %eax,0x8(%esp)
 804a323:	8b 44 24 34          	mov    0x34(%esp),%eax
 804a327:	89 44 24 04          	mov    %eax,0x4(%esp)
 804a32b:	ff 94 bb 08 ff ff ff 	call   *-0xf8(%ebx,%edi,4)
 804a332:	83 c7 01             	add    $0x1,%edi
 804a335:	39 f7                	cmp    %esi,%edi
 804a337:	75 df                	jne    804a318 <__libc_csu_init+0x38>
 804a339:	83 c4 1c             	add    $0x1c,%esp
 804a33c:	5b                   	pop    %ebx
 804a33d:	5e                   	pop    %esi
 804a33e:	5f                   	pop    %edi
 804a33f:	5d                   	pop    %ebp
 804a340:	c3                   	ret    
 804a341:	eb 0d                	jmp    804a350 <__libc_csu_fini>
 804a343:	90                   	nop
 804a344:	90                   	nop
 804a345:	90                   	nop
 804a346:	90                   	nop
 804a347:	90                   	nop
 804a348:	90                   	nop
 804a349:	90                   	nop
 804a34a:	90                   	nop
 804a34b:	90                   	nop
 804a34c:	90                   	nop
 804a34d:	90                   	nop
 804a34e:	90                   	nop
 804a34f:	90                   	nop

0804a350 <__libc_csu_fini>:
 804a350:	f3 c3                	repz ret 
 804a352:	66 90                	xchg   %ax,%ax

Disassembly of section .fini:

0804a354 <_fini>:
 804a354:	53                   	push   %ebx
 804a355:	83 ec 08             	sub    $0x8,%esp
 804a358:	e8 33 e7 ff ff       	call   8048a90 <__x86.get_pc_thunk.bx>
 804a35d:	81 c3 a3 1c 00 00    	add    $0x1ca3,%ebx
 804a363:	83 c4 08             	add    $0x8,%esp
 804a366:	5b                   	pop    %ebx
 804a367:	c3                   	ret    
